
app_t20:     file format elf32-tradlittlemips


Disassembly of section .init:

004016ec <_init>:
  4016ec:	3c1c000c 	lui	gp,0xc
  4016f0:	279ccab4 	addiu	gp,gp,-13644
  4016f4:	0399e021 	addu	gp,gp,t9
  4016f8:	27bdffe0 	addiu	sp,sp,-32
  4016fc:	afbc0010 	sw	gp,16(sp)
  401700:	afbf001c 	sw	ra,28(sp)
  401704:	8f828028 	lw	v0,-32728(gp)
  401708:	10400004 	beqz	v0,40171c <_init+0x30>
  40170c:	00000000 	nop
  401710:	8f998028 	lw	t9,-32728(gp)
  401714:	0320f809 	jalr	t9
  401718:	00000000 	nop
  40171c:	04110001 	bal	401724 <_init+0x38>
  401720:	00000000 	nop
  401724:	0c10064a 	jal	401928 <_init+0x23c>
  401728:	00000000 	nop
  40172c:	04110001 	bal	401734 <_init+0x48>
  401730:	00000000 	nop
  401734:	0c11d304 	jal	474c10 <_init+0x73524>
  401738:	00000000 	nop
  40173c:	8fbf001c 	lw	ra,28(sp)
  401740:	03e00008 	jr	ra
  401744:	27bd0020 	addiu	sp,sp,32

Disassembly of section .text:

00401750 <.text>:
  401750:	27bdffe0 	addiu	sp,sp,-32
  401754:	afbf001c 	sw	ra,28(sp)
  401758:	0c100737 	jal	401cdc <_init+0x5f0>
  40175c:	00000000 	nop
  401760:	0c1009e1 	jal	402784 <_init+0x1098>
  401764:	00000000 	nop
  401768:	0c100ac8 	jal	402b20 <_init+0x1434>
  40176c:	00000000 	nop
  401770:	0c100d9b 	jal	40366c <_init+0x1f80>
  401774:	00002021 	move	a0,zero
  401778:	0c100d9b 	jal	40366c <_init+0x1f80>
  40177c:	24040001 	li	a0,1
  401780:	0c12584c 	jal	496130 <sleep@plt>
  401784:	24040002 	li	a0,2
  401788:	0c1007b2 	jal	401ec8 <_init+0x7dc>
  40178c:	00000000 	nop
  401790:	8fbf001c 	lw	ra,28(sp)
  401794:	00001021 	move	v0,zero
  401798:	03e00008 	jr	ra
  40179c:	27bd0020 	addiu	sp,sp,32
  4017a0:	3c1c004c 	lui	gp,0x4c
  4017a4:	279ce1a0 	addiu	gp,gp,-7776
  4017a8:	0000f821 	move	ra,zero
  4017ac:	3c040040 	lui	a0,0x40
  4017b0:	24841750 	addiu	a0,a0,5968
  4017b4:	8fa50000 	lw	a1,0(sp)
  4017b8:	27a60004 	addiu	a2,sp,4
  4017bc:	2401fff8 	li	at,-8
  4017c0:	03a1e824 	and	sp,sp,at
  4017c4:	27bdffe0 	addiu	sp,sp,-32
  4017c8:	3c070047 	lui	a3,0x47
  4017cc:	24e74b60 	addiu	a3,a3,19296
  4017d0:	3c080047 	lui	t0,0x47
  4017d4:	25084c08 	addiu	t0,t0,19464
  4017d8:	afa80010 	sw	t0,16(sp)
  4017dc:	afa20014 	sw	v0,20(sp)
  4017e0:	afbd0018 	sw	sp,24(sp)
  4017e4:	0c1258d0 	jal	496340 <__libc_start_main@plt>
  4017e8:	00000000 	nop
  4017ec:	1000ffff 	b	4017ec <_init+0x100>
  4017f0:	00000000 	nop
	...
  401800:	3c04004b 	lui	a0,0x4b
  401804:	3c02004b 	lui	v0,0x4b
  401808:	248461a4 	addiu	a0,a0,24996
  40180c:	244261a7 	addiu	v0,v0,24999
  401810:	00441023 	subu	v0,v0,a0
  401814:	2c420007 	sltiu	v0,v0,7
  401818:	10400003 	beqz	v0,401828 <_init+0x13c>
  40181c:	3c190000 	lui	t9,0x0
  401820:	03e00008 	jr	ra
  401824:	00000000 	nop
  401828:	27390000 	addiu	t9,t9,0
  40182c:	1320fffc 	beqz	t9,401820 <_init+0x134>
  401830:	00000000 	nop
  401834:	03200008 	jr	t9
  401838:	00000000 	nop
  40183c:	3c04004b 	lui	a0,0x4b
  401840:	3c02004b 	lui	v0,0x4b
  401844:	248461a4 	addiu	a0,a0,24996
  401848:	244261a4 	addiu	v0,v0,24996
  40184c:	00441023 	subu	v0,v0,a0
  401850:	00021083 	sra	v0,v0,0x2
  401854:	00021fc2 	srl	v1,v0,0x1f
  401858:	00621021 	addu	v0,v1,v0
  40185c:	00022843 	sra	a1,v0,0x1
  401860:	14a00003 	bnez	a1,401870 <_init+0x184>
  401864:	3c190000 	lui	t9,0x0
  401868:	03e00008 	jr	ra
  40186c:	00000000 	nop
  401870:	27390000 	addiu	t9,t9,0
  401874:	1320fffc 	beqz	t9,401868 <_init+0x17c>
  401878:	00000000 	nop
  40187c:	03200008 	jr	t9
  401880:	00000000 	nop
  401884:	27bdffd0 	addiu	sp,sp,-48
  401888:	afb30028 	sw	s3,40(sp)
  40188c:	3c13004b 	lui	s3,0x4b
  401890:	926261f0 	lbu	v0,25072(s3)
  401894:	afbf002c 	sw	ra,44(sp)
  401898:	afb20024 	sw	s2,36(sp)
  40189c:	afb10020 	sw	s1,32(sp)
  4018a0:	1440001a 	bnez	v0,40190c <_init+0x220>
  4018a4:	afb0001c 	sw	s0,28(sp)
  4018a8:	3c12004a 	lui	s2,0x4a
  4018ac:	3c11004a 	lui	s1,0x4a
  4018b0:	3c10004b 	lui	s0,0x4b
  4018b4:	26527008 	addiu	s2,s2,28680
  4018b8:	2631700c 	addiu	s1,s1,28684
  4018bc:	8e0261f4 	lw	v0,25076(s0)
  4018c0:	02328823 	subu	s1,s1,s2
  4018c4:	00118883 	sra	s1,s1,0x2
  4018c8:	2631ffff 	addiu	s1,s1,-1
  4018cc:	0051182b 	sltu	v1,v0,s1
  4018d0:	1060000a 	beqz	v1,4018fc <_init+0x210>
  4018d4:	24420001 	addiu	v0,v0,1
  4018d8:	00021880 	sll	v1,v0,0x2
  4018dc:	02431821 	addu	v1,s2,v1
  4018e0:	8c790000 	lw	t9,0(v1)
  4018e4:	0320f809 	jalr	t9
  4018e8:	ae0261f4 	sw	v0,25076(s0)
  4018ec:	8e0261f4 	lw	v0,25076(s0)
  4018f0:	0051182b 	sltu	v1,v0,s1
  4018f4:	1460fff8 	bnez	v1,4018d8 <_init+0x1ec>
  4018f8:	24420001 	addiu	v0,v0,1
  4018fc:	0c100600 	jal	401800 <_init+0x114>
  401900:	00000000 	nop
  401904:	24020001 	li	v0,1
  401908:	a26261f0 	sb	v0,25072(s3)
  40190c:	8fbf002c 	lw	ra,44(sp)
  401910:	8fb30028 	lw	s3,40(sp)
  401914:	8fb20024 	lw	s2,36(sp)
  401918:	8fb10020 	lw	s1,32(sp)
  40191c:	8fb0001c 	lw	s0,28(sp)
  401920:	03e00008 	jr	ra
  401924:	27bd0030 	addiu	sp,sp,48
  401928:	3c04004a 	lui	a0,0x4a
  40192c:	8c827010 	lw	v0,28688(a0)
  401930:	1040000b 	beqz	v0,401960 <_init+0x274>
  401934:	3c190000 	lui	t9,0x0
  401938:	27390000 	addiu	t9,t9,0
  40193c:	13200008 	beqz	t9,401960 <_init+0x274>
  401940:	00000000 	nop
  401944:	27bdffe0 	addiu	sp,sp,-32
  401948:	afbf001c 	sw	ra,28(sp)
  40194c:	0320f809 	jalr	t9
  401950:	24847010 	addiu	a0,a0,28688
  401954:	8fbf001c 	lw	ra,28(sp)
  401958:	0810060f 	j	40183c <_init+0x150>
  40195c:	27bd0020 	addiu	sp,sp,32
  401960:	0810060f 	j	40183c <_init+0x150>
  401964:	00000000 	nop
	...
  401970:	27bdffd0 	addiu	sp,sp,-48
  401974:	afb1001c 	sw	s1,28(sp)
  401978:	3c11004c 	lui	s1,0x4c
  40197c:	afb00018 	sw	s0,24(sp)
  401980:	2630a550 	addiu	s0,s1,-23216
  401984:	02002021 	move	a0,s0
  401988:	00002821 	move	a1,zero
  40198c:	24060050 	li	a2,80
  401990:	afbf002c 	sw	ra,44(sp)
  401994:	afb40028 	sw	s4,40(sp)
  401998:	afb30024 	sw	s3,36(sp)
  40199c:	0c1258ec 	jal	4963b0 <memset@plt>
  4019a0:	afb20020 	sw	s2,32(sp)
  4019a4:	3c03004c 	lui	v1,0x4c
  4019a8:	2469a574 	addiu	t1,v1,-23180
  4019ac:	24020032 	li	v0,50
  4019b0:	3c140047 	lui	s4,0x47
  4019b4:	3c130047 	lui	s3,0x47
  4019b8:	3c120047 	lui	s2,0x47
  4019bc:	3c083266 	lui	t0,0x3266
  4019c0:	2508786a 	addiu	t0,t0,30826
  4019c4:	240a0001 	li	t2,1
  4019c8:	a5220004 	sh	v0,4(t1)
  4019cc:	26654ee0 	addiu	a1,s3,20192
  4019d0:	26464cc8 	addiu	a2,s2,19656
  4019d4:	2407002a 	li	a3,42
  4019d8:	26844cb4 	addiu	a0,s4,19636
  4019dc:	a6020004 	sh	v0,4(s0)
  4019e0:	24020040 	li	v0,64
  4019e4:	ae28a550 	sw	t0,-23216(s1)
  4019e8:	ae0a0020 	sw	t2,32(s0)
  4019ec:	ac68a574 	sw	t0,-23180(v1)
  4019f0:	0c12580c 	jal	496030 <printf@plt>
  4019f4:	ae020038 	sw	v0,56(s0)
  4019f8:	3c040047 	lui	a0,0x47
  4019fc:	0c12589c 	jal	496270 <puts@plt>
  401a00:	24844cd4 	addiu	a0,a0,19668
  401a04:	0c106b4c 	jal	41ad30 <_init+0x19644>
  401a08:	00000000 	nop
  401a0c:	04400026 	bltz	v0,401aa8 <_init+0x3bc>
  401a10:	3c040047 	lui	a0,0x47
  401a14:	0c106be3 	jal	41af8c <_init+0x198a0>
  401a18:	02002021 	move	a0,s0
  401a1c:	04400030 	bltz	v0,401ae0 <_init+0x3f4>
  401a20:	3c040047 	lui	a0,0x47
  401a24:	0c106c91 	jal	41b244 <_init+0x19b58>
  401a28:	00000000 	nop
  401a2c:	04400034 	bltz	v0,401b00 <_init+0x414>
  401a30:	3c040047 	lui	a0,0x47
  401a34:	0c100e70 	jal	4039c0 <_init+0x22d4>
  401a38:	00000000 	nop
  401a3c:	04400038 	bltz	v0,401b20 <_init+0x434>
  401a40:	3c040047 	lui	a0,0x47
  401a44:	0c107800 	jal	41e000 <_init+0x1c914>
  401a48:	00000000 	nop
  401a4c:	0440003c 	bltz	v0,401b40 <_init+0x454>
  401a50:	3c040047 	lui	a0,0x47
  401a54:	2404001e 	li	a0,30
  401a58:	0c106f73 	jal	41bdcc <_init+0x1a6e0>
  401a5c:	24050001 	li	a1,1
  401a60:	0440003f 	bltz	v0,401b60 <_init+0x474>
  401a64:	26654ee0 	addiu	a1,s3,20192
  401a68:	26844cb4 	addiu	a0,s4,19636
  401a6c:	26464cc8 	addiu	a2,s2,19656
  401a70:	0c12580c 	jal	496030 <printf@plt>
  401a74:	24070051 	li	a3,81
  401a78:	3c040047 	lui	a0,0x47
  401a7c:	0c12589c 	jal	496270 <puts@plt>
  401a80:	24844da4 	addiu	a0,a0,19876
  401a84:	00001021 	move	v0,zero
  401a88:	8fbf002c 	lw	ra,44(sp)
  401a8c:	8fb40028 	lw	s4,40(sp)
  401a90:	8fb30024 	lw	s3,36(sp)
  401a94:	8fb20020 	lw	s2,32(sp)
  401a98:	8fb1001c 	lw	s1,28(sp)
  401a9c:	8fb00018 	lw	s0,24(sp)
  401aa0:	03e00008 	jr	ra
  401aa4:	27bd0030 	addiu	sp,sp,48
  401aa8:	24844cf0 	addiu	a0,a0,19696
  401aac:	26654ee0 	addiu	a1,s3,20192
  401ab0:	26464cc8 	addiu	a2,s2,19656
  401ab4:	0c12580c 	jal	496030 <printf@plt>
  401ab8:	2407002e 	li	a3,46
  401abc:	3c040047 	lui	a0,0x47
  401ac0:	24844d0c 	addiu	a0,a0,19724
  401ac4:	0c12589c 	jal	496270 <puts@plt>
  401ac8:	00000000 	nop
  401acc:	3c040047 	lui	a0,0x47
  401ad0:	0c12580c 	jal	496030 <printf@plt>
  401ad4:	24844d20 	addiu	a0,a0,19744
  401ad8:	1000ffeb 	b	401a88 <_init+0x39c>
  401adc:	2402ffff 	li	v0,-1
  401ae0:	24844cf0 	addiu	a0,a0,19696
  401ae4:	26654ee0 	addiu	a1,s3,20192
  401ae8:	26464cc8 	addiu	a2,s2,19656
  401aec:	0c12580c 	jal	496030 <printf@plt>
  401af0:	24070034 	li	a3,52
  401af4:	3c040047 	lui	a0,0x47
  401af8:	1000fff2 	b	401ac4 <_init+0x3d8>
  401afc:	24844d28 	addiu	a0,a0,19752
  401b00:	24844cf0 	addiu	a0,a0,19696
  401b04:	26654ee0 	addiu	a1,s3,20192
  401b08:	26464cc8 	addiu	a2,s2,19656
  401b0c:	0c12580c 	jal	496030 <printf@plt>
  401b10:	2407003a 	li	a3,58
  401b14:	3c040047 	lui	a0,0x47
  401b18:	1000ffea 	b	401ac4 <_init+0x3d8>
  401b1c:	24844d3c 	addiu	a0,a0,19772
  401b20:	24844cf0 	addiu	a0,a0,19696
  401b24:	26654ee0 	addiu	a1,s3,20192
  401b28:	26464cc8 	addiu	a2,s2,19656
  401b2c:	0c12580c 	jal	496030 <printf@plt>
  401b30:	24070040 	li	a3,64
  401b34:	3c040047 	lui	a0,0x47
  401b38:	1000ffe2 	b	401ac4 <_init+0x3d8>
  401b3c:	24844d54 	addiu	a0,a0,19796
  401b40:	24844cf0 	addiu	a0,a0,19696
  401b44:	26654ee0 	addiu	a1,s3,20192
  401b48:	26464cc8 	addiu	a2,s2,19656
  401b4c:	0c12580c 	jal	496030 <printf@plt>
  401b50:	24070047 	li	a3,71
  401b54:	3c040047 	lui	a0,0x47
  401b58:	1000ffda 	b	401ac4 <_init+0x3d8>
  401b5c:	24844d6c 	addiu	a0,a0,19820
  401b60:	3c040047 	lui	a0,0x47
  401b64:	24844cf0 	addiu	a0,a0,19696
  401b68:	26464cc8 	addiu	a2,s2,19656
  401b6c:	0c12580c 	jal	496030 <printf@plt>
  401b70:	2407004d 	li	a3,77
  401b74:	3c040047 	lui	a0,0x47
  401b78:	1000ffd2 	b	401ac4 <_init+0x3d8>
  401b7c:	24844d88 	addiu	a0,a0,19848
  401b80:	27bdffd8 	addiu	sp,sp,-40
  401b84:	afb20020 	sw	s2,32(sp)
  401b88:	afb1001c 	sw	s1,28(sp)
  401b8c:	afb00018 	sw	s0,24(sp)
  401b90:	3c120047 	lui	s2,0x47
  401b94:	3c110047 	lui	s1,0x47
  401b98:	3c100047 	lui	s0,0x47
  401b9c:	26254ef0 	addiu	a1,s1,20208
  401ba0:	26064cc8 	addiu	a2,s0,19656
  401ba4:	24070061 	li	a3,97
  401ba8:	afbf0024 	sw	ra,36(sp)
  401bac:	0c12580c 	jal	496030 <printf@plt>
  401bb0:	26444cb4 	addiu	a0,s2,19636
  401bb4:	3c040047 	lui	a0,0x47
  401bb8:	0c12589c 	jal	496270 <puts@plt>
  401bbc:	24844dbc 	addiu	a0,a0,19900
  401bc0:	0c100e97 	jal	403a5c <_init+0x2370>
  401bc4:	00000000 	nop
  401bc8:	0c106cef 	jal	41b3bc <_init+0x19cd0>
  401bcc:	00000000 	nop
  401bd0:	0440002a 	bltz	v0,401c7c <_init+0x590>
  401bd4:	26254ef0 	addiu	a1,s1,20208
  401bd8:	3c04004c 	lui	a0,0x4c
  401bdc:	0c106d4d 	jal	41b534 <_init+0x19e48>
  401be0:	2484a550 	addiu	a0,a0,-23216
  401be4:	0440002d 	bltz	v0,401c9c <_init+0x5b0>
  401be8:	3c040047 	lui	a0,0x47
  401bec:	0c106ebb 	jal	41baec <_init+0x1a400>
  401bf0:	00000000 	nop
  401bf4:	04400031 	bltz	v0,401cbc <_init+0x5d0>
  401bf8:	3c040047 	lui	a0,0x47
  401bfc:	0c106bb5 	jal	41aed4 <_init+0x197e8>
  401c00:	00000000 	nop
  401c04:	1440000f 	bnez	v0,401c44 <_init+0x558>
  401c08:	26254ef0 	addiu	a1,s1,20208
  401c0c:	26444cb4 	addiu	a0,s2,19636
  401c10:	26064cc8 	addiu	a2,s0,19656
  401c14:	0c12580c 	jal	496030 <printf@plt>
  401c18:	2407007c 	li	a3,124
  401c1c:	3c040047 	lui	a0,0x47
  401c20:	0c12589c 	jal	496270 <puts@plt>
  401c24:	24844df8 	addiu	a0,a0,19960
  401c28:	00001021 	move	v0,zero
  401c2c:	8fbf0024 	lw	ra,36(sp)
  401c30:	8fb20020 	lw	s2,32(sp)
  401c34:	8fb1001c 	lw	s1,28(sp)
  401c38:	8fb00018 	lw	s0,24(sp)
  401c3c:	03e00008 	jr	ra
  401c40:	27bd0028 	addiu	sp,sp,40
  401c44:	3c040047 	lui	a0,0x47
  401c48:	24844cf0 	addiu	a0,a0,19696
  401c4c:	26064cc8 	addiu	a2,s0,19656
  401c50:	0c12580c 	jal	496030 <printf@plt>
  401c54:	24070078 	li	a3,120
  401c58:	3c040047 	lui	a0,0x47
  401c5c:	24844d0c 	addiu	a0,a0,19724
  401c60:	0c12589c 	jal	496270 <puts@plt>
  401c64:	00000000 	nop
  401c68:	3c040047 	lui	a0,0x47
  401c6c:	0c12580c 	jal	496030 <printf@plt>
  401c70:	24844d20 	addiu	a0,a0,19744
  401c74:	1000ffed 	b	401c2c <_init+0x540>
  401c78:	2402ffff 	li	v0,-1
  401c7c:	3c040047 	lui	a0,0x47
  401c80:	24844cf0 	addiu	a0,a0,19696
  401c84:	26064cc8 	addiu	a2,s0,19656
  401c88:	0c12580c 	jal	496030 <printf@plt>
  401c8c:	24070067 	li	a3,103
  401c90:	3c040047 	lui	a0,0x47
  401c94:	1000fff2 	b	401c60 <_init+0x574>
  401c98:	24844d3c 	addiu	a0,a0,19772
  401c9c:	24844cf0 	addiu	a0,a0,19696
  401ca0:	26254ef0 	addiu	a1,s1,20208
  401ca4:	26064cc8 	addiu	a2,s0,19656
  401ca8:	0c12580c 	jal	496030 <printf@plt>
  401cac:	2407006d 	li	a3,109
  401cb0:	3c040047 	lui	a0,0x47
  401cb4:	1000ffea 	b	401c60 <_init+0x574>
  401cb8:	24844d28 	addiu	a0,a0,19752
  401cbc:	24844cf0 	addiu	a0,a0,19696
  401cc0:	26254ef0 	addiu	a1,s1,20208
  401cc4:	26064cc8 	addiu	a2,s0,19656
  401cc8:	0c12580c 	jal	496030 <printf@plt>
  401ccc:	24070073 	li	a3,115
  401cd0:	3c040047 	lui	a0,0x47
  401cd4:	1000ffe2 	b	401c60 <_init+0x574>
  401cd8:	24844dd8 	addiu	a0,a0,19928
  401cdc:	27bdffc8 	addiu	sp,sp,-56
  401ce0:	afbf0034 	sw	ra,52(sp)
  401ce4:	afb50030 	sw	s5,48(sp)
  401ce8:	afb4002c 	sw	s4,44(sp)
  401cec:	afb30028 	sw	s3,40(sp)
  401cf0:	afb20024 	sw	s2,36(sp)
  401cf4:	afb10020 	sw	s1,32(sp)
  401cf8:	0c10065c 	jal	401970 <_init+0x284>
  401cfc:	afb0001c 	sw	s0,28(sp)
  401d00:	04400054 	bltz	v0,401e54 <_init+0x768>
  401d04:	3c050047 	lui	a1,0x47
  401d08:	0c100cb7 	jal	4032dc <_init+0x1bf0>
  401d0c:	00000000 	nop
  401d10:	0440005d 	bltz	v0,401e88 <_init+0x79c>
  401d14:	3c050047 	lui	a1,0x47
  401d18:	0c1008f8 	jal	4023e0 <_init+0xcf4>
  401d1c:	00000000 	nop
  401d20:	0440005e 	bltz	v0,401e9c <_init+0x7b0>
  401d24:	3c12004b 	lui	s2,0x4b
  401d28:	2652f3a0 	addiu	s2,s2,-3168
  401d2c:	00008021 	move	s0,zero
  401d30:	0240a021 	move	s4,s2
  401d34:	24150002 	li	s5,2
  401d38:	00101100 	sll	v0,s0,0x4
  401d3c:	00108880 	sll	s1,s0,0x2
  401d40:	00518823 	subu	s1,v0,s1
  401d44:	02308821 	addu	s1,s1,s0
  401d48:	001188c0 	sll	s1,s1,0x3
  401d4c:	02519821 	addu	s3,s2,s1
  401d50:	2673005c 	addiu	s3,s3,92
  401d54:	02512021 	addu	a0,s2,s1
  401d58:	24840044 	addiu	a0,a0,68
  401d5c:	0c100f0c 	jal	403c30 <_init+0x2544>
  401d60:	02602821 	move	a1,s3
  401d64:	26250050 	addiu	a1,s1,80
  401d68:	02602021 	move	a0,s3
  401d6c:	04400011 	bltz	v0,401db4 <_init+0x6c8>
  401d70:	02852821 	addu	a1,s4,a1
  401d74:	0c100f0c 	jal	403c30 <_init+0x2544>
  401d78:	00000000 	nop
  401d7c:	04400027 	bltz	v0,401e1c <_init+0x730>
  401d80:	3c040047 	lui	a0,0x47
  401d84:	26100001 	addiu	s0,s0,1
  401d88:	1615ffeb 	bne	s0,s5,401d38 <_init+0x64c>
  401d8c:	8fbf0034 	lw	ra,52(sp)
  401d90:	8fb50030 	lw	s5,48(sp)
  401d94:	8fb4002c 	lw	s4,44(sp)
  401d98:	8fb30028 	lw	s3,40(sp)
  401d9c:	8fb20024 	lw	s2,36(sp)
  401da0:	8fb10020 	lw	s1,32(sp)
  401da4:	8fb0001c 	lw	s0,28(sp)
  401da8:	00001021 	move	v0,zero
  401dac:	03e00008 	jr	ra
  401db0:	27bd0038 	addiu	sp,sp,56
  401db4:	3c040047 	lui	a0,0x47
  401db8:	3c050047 	lui	a1,0x47
  401dbc:	3c060047 	lui	a2,0x47
  401dc0:	24844cf0 	addiu	a0,a0,19696
  401dc4:	24a54f00 	addiu	a1,a1,20224
  401dc8:	24c64cc8 	addiu	a2,a2,19656
  401dcc:	0c12580c 	jal	496030 <printf@plt>
  401dd0:	240700a7 	li	a3,167
  401dd4:	3c040047 	lui	a0,0x47
  401dd8:	02002821 	move	a1,s0
  401ddc:	24844e38 	addiu	a0,a0,20024
  401de0:	0c12580c 	jal	496030 <printf@plt>
  401de4:	02003021 	move	a2,s0
  401de8:	3c040047 	lui	a0,0x47
  401dec:	0c12580c 	jal	496030 <printf@plt>
  401df0:	24844d20 	addiu	a0,a0,19744
  401df4:	8fbf0034 	lw	ra,52(sp)
  401df8:	8fb50030 	lw	s5,48(sp)
  401dfc:	8fb4002c 	lw	s4,44(sp)
  401e00:	8fb30028 	lw	s3,40(sp)
  401e04:	8fb20024 	lw	s2,36(sp)
  401e08:	8fb10020 	lw	s1,32(sp)
  401e0c:	8fb0001c 	lw	s0,28(sp)
  401e10:	2402ffff 	li	v0,-1
  401e14:	03e00008 	jr	ra
  401e18:	27bd0038 	addiu	sp,sp,56
  401e1c:	3c050047 	lui	a1,0x47
  401e20:	3c060047 	lui	a2,0x47
  401e24:	240700ad 	li	a3,173
  401e28:	24844cf0 	addiu	a0,a0,19696
  401e2c:	24a54f00 	addiu	a1,a1,20224
  401e30:	0c12580c 	jal	496030 <printf@plt>
  401e34:	24c64cc8 	addiu	a2,a2,19656
  401e38:	3c040047 	lui	a0,0x47
  401e3c:	02002821 	move	a1,s0
  401e40:	24844e6c 	addiu	a0,a0,20076
  401e44:	0c12580c 	jal	496030 <printf@plt>
  401e48:	02003021 	move	a2,s0
  401e4c:	1000ffe7 	b	401dec <_init+0x700>
  401e50:	3c040047 	lui	a0,0x47
  401e54:	3c060047 	lui	a2,0x47
  401e58:	24a54f00 	addiu	a1,a1,20224
  401e5c:	24c64cc8 	addiu	a2,a2,19656
  401e60:	24070091 	li	a3,145
  401e64:	3c040047 	lui	a0,0x47
  401e68:	0c12580c 	jal	496030 <printf@plt>
  401e6c:	24844cf0 	addiu	a0,a0,19696
  401e70:	3c040047 	lui	a0,0x47
  401e74:	24844e14 	addiu	a0,a0,19988
  401e78:	0c12589c 	jal	496270 <puts@plt>
  401e7c:	00000000 	nop
  401e80:	1000ffda 	b	401dec <_init+0x700>
  401e84:	3c040047 	lui	a0,0x47
  401e88:	3c060047 	lui	a2,0x47
  401e8c:	24a54f00 	addiu	a1,a1,20224
  401e90:	24c64cc8 	addiu	a2,a2,19656
  401e94:	1000fff3 	b	401e64 <_init+0x778>
  401e98:	24070097 	li	a3,151
  401e9c:	3c050047 	lui	a1,0x47
  401ea0:	3c060047 	lui	a2,0x47
  401ea4:	3c040047 	lui	a0,0x47
  401ea8:	24844cf0 	addiu	a0,a0,19696
  401eac:	24a54f00 	addiu	a1,a1,20224
  401eb0:	24c64cc8 	addiu	a2,a2,19656
  401eb4:	0c12580c 	jal	496030 <printf@plt>
  401eb8:	2407009e 	li	a3,158
  401ebc:	3c040047 	lui	a0,0x47
  401ec0:	1000ffed 	b	401e78 <_init+0x78c>
  401ec4:	24844e28 	addiu	a0,a0,20008
  401ec8:	27bdffc8 	addiu	sp,sp,-56
  401ecc:	afb20024 	sw	s2,36(sp)
  401ed0:	3c12004b 	lui	s2,0x4b
  401ed4:	2652f3a0 	addiu	s2,s2,-3168
  401ed8:	afb50030 	sw	s5,48(sp)
  401edc:	afb4002c 	sw	s4,44(sp)
  401ee0:	afb0001c 	sw	s0,28(sp)
  401ee4:	afbf0034 	sw	ra,52(sp)
  401ee8:	afb30028 	sw	s3,40(sp)
  401eec:	afb10020 	sw	s1,32(sp)
  401ef0:	00008021 	move	s0,zero
  401ef4:	0240a021 	move	s4,s2
  401ef8:	24150002 	li	s5,2
  401efc:	00101080 	sll	v0,s0,0x2
  401f00:	00108900 	sll	s1,s0,0x4
  401f04:	02228823 	subu	s1,s1,v0
  401f08:	02308821 	addu	s1,s1,s0
  401f0c:	001188c0 	sll	s1,s1,0x3
  401f10:	02519821 	addu	s3,s2,s1
  401f14:	2673005c 	addiu	s3,s3,92
  401f18:	26250050 	addiu	a1,s1,80
  401f1c:	02602021 	move	a0,s3
  401f20:	0c100f39 	jal	403ce4 <_init+0x25f8>
  401f24:	02452821 	addu	a1,s2,a1
  401f28:	02912021 	addu	a0,s4,s1
  401f2c:	24840044 	addiu	a0,a0,68
  401f30:	02602821 	move	a1,s3
  401f34:	04400017 	bltz	v0,401f94 <_init+0x8a8>
  401f38:	26100001 	addiu	s0,s0,1
  401f3c:	0c100f39 	jal	403ce4 <_init+0x25f8>
  401f40:	00000000 	nop
  401f44:	0440002c 	bltz	v0,401ff8 <_init+0x90c>
  401f48:	3c050047 	lui	a1,0x47
  401f4c:	1615ffec 	bne	s0,s5,401f00 <_init+0x814>
  401f50:	00101080 	sll	v0,s0,0x2
  401f54:	0c100983 	jal	40260c <_init+0xf20>
  401f58:	00000000 	nop
  401f5c:	0c100bf4 	jal	402fd0 <_init+0x18e4>
  401f60:	00000000 	nop
  401f64:	0c1006e0 	jal	401b80 <_init+0x494>
  401f68:	00000000 	nop
  401f6c:	8fbf0034 	lw	ra,52(sp)
  401f70:	8fb50030 	lw	s5,48(sp)
  401f74:	8fb4002c 	lw	s4,44(sp)
  401f78:	8fb30028 	lw	s3,40(sp)
  401f7c:	8fb20024 	lw	s2,36(sp)
  401f80:	8fb10020 	lw	s1,32(sp)
  401f84:	8fb0001c 	lw	s0,28(sp)
  401f88:	00001021 	move	v0,zero
  401f8c:	03e00008 	jr	ra
  401f90:	27bd0038 	addiu	sp,sp,56
  401f94:	3c050047 	lui	a1,0x47
  401f98:	3c060047 	lui	a2,0x47
  401f9c:	3c040047 	lui	a0,0x47
  401fa0:	24844cf0 	addiu	a0,a0,19696
  401fa4:	24a54f14 	addiu	a1,a1,20244
  401fa8:	24c64cc8 	addiu	a2,a2,19656
  401fac:	0c12580c 	jal	496030 <printf@plt>
  401fb0:	240700c8 	li	a3,200
  401fb4:	3c040047 	lui	a0,0x47
  401fb8:	24844e94 	addiu	a0,a0,20116
  401fbc:	0c12589c 	jal	496270 <puts@plt>
  401fc0:	00000000 	nop
  401fc4:	3c040047 	lui	a0,0x47
  401fc8:	0c12580c 	jal	496030 <printf@plt>
  401fcc:	24844d20 	addiu	a0,a0,19744
  401fd0:	8fbf0034 	lw	ra,52(sp)
  401fd4:	8fb50030 	lw	s5,48(sp)
  401fd8:	8fb4002c 	lw	s4,44(sp)
  401fdc:	8fb30028 	lw	s3,40(sp)
  401fe0:	8fb20024 	lw	s2,36(sp)
  401fe4:	8fb10020 	lw	s1,32(sp)
  401fe8:	8fb0001c 	lw	s0,28(sp)
  401fec:	2402ffff 	li	v0,-1
  401ff0:	03e00008 	jr	ra
  401ff4:	27bd0038 	addiu	sp,sp,56
  401ff8:	3c060047 	lui	a2,0x47
  401ffc:	3c040047 	lui	a0,0x47
  402000:	24844cf0 	addiu	a0,a0,19696
  402004:	24a54f14 	addiu	a1,a1,20244
  402008:	24c64cc8 	addiu	a2,a2,19656
  40200c:	0c12580c 	jal	496030 <printf@plt>
  402010:	240700ce 	li	a3,206
  402014:	3c040047 	lui	a0,0x47
  402018:	1000ffe8 	b	401fbc <_init+0x8d0>
  40201c:	24844eb4 	addiu	a0,a0,20148
  402020:	27bdff68 	addiu	sp,sp,-152
  402024:	afbf0094 	sw	ra,148(sp)
  402028:	afbe0090 	sw	s8,144(sp)
  40202c:	afb7008c 	sw	s7,140(sp)
  402030:	afb60088 	sw	s6,136(sp)
  402034:	afb50084 	sw	s5,132(sp)
  402038:	afb40080 	sw	s4,128(sp)
  40203c:	afb3007c 	sw	s3,124(sp)
  402040:	afb20078 	sw	s2,120(sp)
  402044:	afb10074 	sw	s1,116(sp)
  402048:	0c125830 	jal	4960c0 <pthread_self@plt>
  40204c:	afb00070 	sw	s0,112(sp)
  402050:	0c125960 	jal	496580 <pthread_detach@plt>
  402054:	00402021 	move	a0,v0
  402058:	3404aa00 	li	a0,0xaa00
  40205c:	afa00048 	sw	zero,72(sp)
  402060:	0c125894 	jal	496250 <malloc@plt>
  402064:	afa0004c 	sw	zero,76(sp)
  402068:	3404aa00 	li	a0,0xaa00
  40206c:	afa20068 	sw	v0,104(sp)
  402070:	0c125894 	jal	496250 <malloc@plt>
  402074:	afa20048 	sw	v0,72(sp)
  402078:	8fa30068 	lw	v1,104(sp)
  40207c:	afa2006c 	sw	v0,108(sp)
  402080:	106000c2 	beqz	v1,40238c <_init+0xca0>
  402084:	afa2004c 	sw	v0,76(sp)
  402088:	104000ae 	beqz	v0,402344 <_init+0xc58>
  40208c:	3c02004b 	lui	v0,0x4b
  402090:	3c10004a 	lui	s0,0x4a
  402094:	8c4461cc 	lw	a0,25036(v0)
  402098:	8e0571c0 	lw	a1,29120(s0)
  40209c:	0c10c2c6 	jal	430b18 <_init+0x2f42c>
  4020a0:	24060001 	li	a2,1
  4020a4:	144000a5 	bnez	v0,40233c <_init+0xc50>
  4020a8:	3c03004b 	lui	v1,0x4b
  4020ac:	246361cc 	addiu	v1,v1,25036
  4020b0:	261071c0 	addiu	s0,s0,29120
  4020b4:	8c640004 	lw	a0,4(v1)
  4020b8:	8e050004 	lw	a1,4(s0)
  4020bc:	0c10c2c6 	jal	430b18 <_init+0x2f42c>
  4020c0:	24060001 	li	a2,1
  4020c4:	14400080 	bnez	v0,4022c8 <_init+0xbdc>
  4020c8:	27a3002c 	addiu	v1,sp,44
  4020cc:	afa0005c 	sw	zero,92(sp)
  4020d0:	27be0050 	addiu	s8,sp,80
  4020d4:	afa30058 	sw	v1,88(sp)
  4020d8:	3411aa00 	li	s1,0xaa00
  4020dc:	0c12583c 	jal	4960f0 <time@plt>
  4020e0:	03c02021 	move	a0,s8
  4020e4:	0c1258bc 	jal	4962f0 <localtime@plt>
  4020e8:	03c02021 	move	a0,s8
  4020ec:	3c060047 	lui	a2,0x47
  4020f0:	27a40018 	addiu	a0,sp,24
  4020f4:	00403821 	move	a3,v0
  4020f8:	24050028 	li	a1,40
  4020fc:	24c64f68 	addiu	a2,a2,20328
  402100:	00809821 	move	s3,a0
  402104:	afa00064 	sw	zero,100(sp)
  402108:	afa00060 	sw	zero,96(sp)
  40210c:	afa00018 	sw	zero,24(sp)
  402110:	afa0001c 	sw	zero,28(sp)
  402114:	afa00020 	sw	zero,32(sp)
  402118:	afa00024 	sw	zero,36(sp)
  40211c:	afa00028 	sw	zero,40(sp)
  402120:	afa0002c 	sw	zero,44(sp)
  402124:	afa00030 	sw	zero,48(sp)
  402128:	afa00034 	sw	zero,52(sp)
  40212c:	afa00038 	sw	zero,56(sp)
  402130:	0c1258b8 	jal	4962e0 <strftime@plt>
  402134:	afa0003c 	sw	zero,60(sp)
  402138:	82630000 	lb	v1,0(s3)
  40213c:	2462ffe0 	addiu	v0,v1,-32
  402140:	304200ff 	andi	v0,v0,0xff
  402144:	2c44001b 	sltiu	a0,v0,27
  402148:	10800013 	beqz	a0,402198 <_init+0xaac>
  40214c:	3c040047 	lui	a0,0x47
  402150:	00021080 	sll	v0,v0,0x2
  402154:	24845100 	addiu	a0,a0,20736
  402158:	00821021 	addu	v0,a0,v0
  40215c:	8c420000 	lw	v0,0(v0)
  402160:	00400008 	jr	v0
  402164:	00000000 	nop
  402168:	2462ffd0 	addiu	v0,v1,-48
  40216c:	3c03004a 	lui	v1,0x4a
  402170:	24637230 	addiu	v1,v1,29232
  402174:	000210c0 	sll	v0,v0,0x3
  402178:	00621021 	addu	v0,v1,v0
  40217c:	8c430000 	lw	v1,0(v0)
  402180:	8fa40060 	lw	a0,96(sp)
  402184:	8c420004 	lw	v0,4(v0)
  402188:	afa30064 	sw	v1,100(sp)
  40218c:	00832021 	addu	a0,a0,v1
  402190:	afa2005c 	sw	v0,92(sp)
  402194:	afa40060 	sw	a0,96(sp)
  402198:	8fa30064 	lw	v1,100(sp)
  40219c:	8fb00068 	lw	s0,104(sp)
  4021a0:	27b2004c 	addiu	s2,sp,76
  4021a4:	0003b080 	sll	s6,v1,0x2
  4021a8:	8fa30060 	lw	v1,96(sp)
  4021ac:	0003a080 	sll	s4,v1,0x2
  4021b0:	8fb5005c 	lw	s5,92(sp)
  4021b4:	02148021 	addu	s0,s0,s4
  4021b8:	0000b821 	move	s7,zero
  4021bc:	02f02021 	addu	a0,s7,s0
  4021c0:	02a02821 	move	a1,s5
  4021c4:	02c03021 	move	a2,s6
  4021c8:	0c125828 	jal	4960a0 <memcpy@plt>
  4021cc:	26f70500 	addiu	s7,s7,1280
  4021d0:	16f1fffa 	bne	s7,s1,4021bc <_init+0xad0>
  4021d4:	02b6a821 	addu	s5,s5,s6
  4021d8:	13d20028 	beq	s8,s2,40227c <_init+0xb90>
  4021dc:	8fa30058 	lw	v1,88(sp)
  4021e0:	8e500000 	lw	s0,0(s2)
  4021e4:	1000fff2 	b	4021b0 <_init+0xac4>
  4021e8:	26520004 	addiu	s2,s2,4
  4021ec:	3c04004a 	lui	a0,0x4a
  4021f0:	24847230 	addiu	a0,a0,29232
  4021f4:	3c02004a 	lui	v0,0x4a
  4021f8:	8c840060 	lw	a0,96(a0)
  4021fc:	8fa30060 	lw	v1,96(sp)
  402200:	24427230 	addiu	v0,v0,29232
  402204:	8c420064 	lw	v0,100(v0)
  402208:	00641821 	addu	v1,v1,a0
  40220c:	afa40064 	sw	a0,100(sp)
  402210:	afa2005c 	sw	v0,92(sp)
  402214:	1000ffe0 	b	402198 <_init+0xaac>
  402218:	afa30060 	sw	v1,96(sp)
  40221c:	3c03004a 	lui	v1,0x4a
  402220:	24637230 	addiu	v1,v1,29232
  402224:	8c630054 	lw	v1,84(v1)
  402228:	3c02004a 	lui	v0,0x4a
  40222c:	24427230 	addiu	v0,v0,29232
  402230:	8c420050 	lw	v0,80(v0)
  402234:	afa3005c 	sw	v1,92(sp)
  402238:	8fa30060 	lw	v1,96(sp)
  40223c:	afa20064 	sw	v0,100(sp)
  402240:	00621821 	addu	v1,v1,v0
  402244:	1000ffd4 	b	402198 <_init+0xaac>
  402248:	afa30060 	sw	v1,96(sp)
  40224c:	3c04004a 	lui	a0,0x4a
  402250:	24847230 	addiu	a0,a0,29232
  402254:	3c02004a 	lui	v0,0x4a
  402258:	8c840058 	lw	a0,88(a0)
  40225c:	8fa30060 	lw	v1,96(sp)
  402260:	24427230 	addiu	v0,v0,29232
  402264:	8c42005c 	lw	v0,92(v0)
  402268:	00641821 	addu	v1,v1,a0
  40226c:	afa40064 	sw	a0,100(sp)
  402270:	afa2005c 	sw	v0,92(sp)
  402274:	1000ffc8 	b	402198 <_init+0xaac>
  402278:	afa30060 	sw	v1,96(sp)
  40227c:	26730001 	addiu	s3,s3,1
  402280:	1473ffad 	bne	v1,s3,402138 <_init+0xa4c>
  402284:	3c02004b 	lui	v0,0x4b
  402288:	8fa30068 	lw	v1,104(sp)
  40228c:	8c4461cc 	lw	a0,25036(v0)
  402290:	27a50040 	addiu	a1,sp,64
  402294:	0c10bc5f 	jal	42f17c <_init+0x2da90>
  402298:	afa30040 	sw	v1,64(sp)
  40229c:	3c02004b 	lui	v0,0x4b
  4022a0:	244261cc 	addiu	v0,v0,25036
  4022a4:	8fa3006c 	lw	v1,108(sp)
  4022a8:	8c440004 	lw	a0,4(v0)
  4022ac:	27a50040 	addiu	a1,sp,64
  4022b0:	0c10bc5f 	jal	42f17c <_init+0x2da90>
  4022b4:	afa30040 	sw	v1,64(sp)
  4022b8:	0c12584c 	jal	496130 <sleep@plt>
  4022bc:	24040001 	li	a0,1
  4022c0:	1000ff86 	b	4020dc <_init+0x9f0>
  4022c4:	00000000 	nop
  4022c8:	24100001 	li	s0,1
  4022cc:	3c110047 	lui	s1,0x47
  4022d0:	3c120048 	lui	s2,0x48
  4022d4:	3c050047 	lui	a1,0x47
  4022d8:	2646d9b8 	addiu	a2,s2,-9800
  4022dc:	240700a8 	li	a3,168
  4022e0:	26244cf0 	addiu	a0,s1,19696
  4022e4:	0c12580c 	jal	496030 <printf@plt>
  4022e8:	24a551c4 	addiu	a1,a1,20932
  4022ec:	3c040047 	lui	a0,0x47
  4022f0:	02002821 	move	a1,s0
  4022f4:	24844f30 	addiu	a0,a0,20272
  4022f8:	0c12580c 	jal	496030 <printf@plt>
  4022fc:	3c100047 	lui	s0,0x47
  402300:	0c12580c 	jal	496030 <printf@plt>
  402304:	26044d20 	addiu	a0,s0,19744
  402308:	3c050047 	lui	a1,0x47
  40230c:	24a551ac 	addiu	a1,a1,20908
  402310:	2646d9b8 	addiu	a2,s2,-9800
  402314:	240700dc 	li	a3,220
  402318:	0c12580c 	jal	496030 <printf@plt>
  40231c:	26244cf0 	addiu	a0,s1,19696
  402320:	3c040047 	lui	a0,0x47
  402324:	0c12589c 	jal	496270 <puts@plt>
  402328:	24844f58 	addiu	a0,a0,20312
  40232c:	0c12580c 	jal	496030 <printf@plt>
  402330:	26044d20 	addiu	a0,s0,19744
  402334:	0c125924 	jal	496490 <pthread_exit@plt>
  402338:	00002021 	move	a0,zero
  40233c:	1000ffe3 	b	4022cc <_init+0xbe0>
  402340:	00008021 	move	s0,zero
  402344:	3c050047 	lui	a1,0x47
  402348:	3c060048 	lui	a2,0x48
  40234c:	3c040047 	lui	a0,0x47
  402350:	24a551ac 	addiu	a1,a1,20908
  402354:	24c6d9b8 	addiu	a2,a2,-9800
  402358:	240700d3 	li	a3,211
  40235c:	0c12580c 	jal	496030 <printf@plt>
  402360:	24844cf0 	addiu	a0,a0,19696
  402364:	3c040047 	lui	a0,0x47
  402368:	0c12589c 	jal	496270 <puts@plt>
  40236c:	24844f7c 	addiu	a0,a0,20348
  402370:	3c040047 	lui	a0,0x47
  402374:	0c12580c 	jal	496030 <printf@plt>
  402378:	24844d20 	addiu	a0,a0,19744
  40237c:	0c125820 	jal	496080 <free@plt>
  402380:	8fa40068 	lw	a0,104(sp)
  402384:	0c125924 	jal	496490 <pthread_exit@plt>
  402388:	00002021 	move	a0,zero
  40238c:	3c050047 	lui	a1,0x47
  402390:	3c060048 	lui	a2,0x48
  402394:	3c040047 	lui	a0,0x47
  402398:	24a551ac 	addiu	a1,a1,20908
  40239c:	24c6d9b8 	addiu	a2,a2,-9800
  4023a0:	240700d3 	li	a3,211
  4023a4:	0c12580c 	jal	496030 <printf@plt>
  4023a8:	24844cf0 	addiu	a0,a0,19696
  4023ac:	3c040047 	lui	a0,0x47
  4023b0:	0c12589c 	jal	496270 <puts@plt>
  4023b4:	24844f7c 	addiu	a0,a0,20348
  4023b8:	3c040047 	lui	a0,0x47
  4023bc:	0c12580c 	jal	496030 <printf@plt>
  4023c0:	24844d20 	addiu	a0,a0,19744
  4023c4:	8fa3006c 	lw	v1,108(sp)
  4023c8:	1060ffee 	beqz	v1,402384 <_init+0xc98>
  4023cc:	00000000 	nop
  4023d0:	0c125820 	jal	496080 <free@plt>
  4023d4:	8fa4006c 	lw	a0,108(sp)
  4023d8:	1000ffea 	b	402384 <_init+0xc98>
  4023dc:	00000000 	nop
  4023e0:	27bdffa8 	addiu	sp,sp,-88
  4023e4:	afb1003c 	sw	s1,60(sp)
  4023e8:	afb00038 	sw	s0,56(sp)
  4023ec:	3c11004b 	lui	s1,0x4b
  4023f0:	3c10004a 	lui	s0,0x4a
  4023f4:	afb60050 	sw	s6,80(sp)
  4023f8:	afb5004c 	sw	s5,76(sp)
  4023fc:	afb40048 	sw	s4,72(sp)
  402400:	afb30044 	sw	s3,68(sp)
  402404:	afb20040 	sw	s2,64(sp)
  402408:	afbf0054 	sw	ra,84(sp)
  40240c:	261071c0 	addiu	s0,s0,29120
  402410:	263161cc 	addiu	s1,s1,25036
  402414:	00009021 	move	s2,zero
  402418:	2414ffff 	li	s4,-1
  40241c:	24150005 	li	s5,5
  402420:	2413000a 	li	s3,10
  402424:	24160149 	li	s6,329
  402428:	0c10b88b 	jal	42e22c <_init+0x2cb40>
  40242c:	8e040000 	lw	a0,0(s0)
  402430:	04400031 	bltz	v0,4024f8 <_init+0xe0c>
  402434:	00002021 	move	a0,zero
  402438:	0c10b994 	jal	42e650 <_init+0x2cf64>
  40243c:	00000000 	nop
  402440:	00402021 	move	a0,v0
  402444:	00003021 	move	a2,zero
  402448:	10540045 	beq	v0,s4,402560 <_init+0xe74>
  40244c:	ae220000 	sw	v0,0(s1)
  402450:	0c10bb15 	jal	42ec54 <_init+0x2d568>
  402454:	8e050000 	lw	a1,0(s0)
  402458:	0440004c 	bltz	v0,40258c <_init+0xea0>
  40245c:	3c060048 	lui	a2,0x48
  402460:	afa00034 	sw	zero,52(sp)
  402464:	afb50018 	sw	s5,24(sp)
  402468:	afb3001c 	sw	s3,28(sp)
  40246c:	1640001e 	bnez	s2,4024e8 <_init+0xdfc>
  402470:	afb30020 	sw	s3,32(sp)
  402474:	2402002b 	li	v0,43
  402478:	afa20028 	sw	v0,40(sp)
  40247c:	afb60024 	sw	s6,36(sp)
  402480:	8e240000 	lw	a0,0(s1)
  402484:	24020011 	li	v0,17
  402488:	27a50018 	addiu	a1,sp,24
  40248c:	afa2002c 	sw	v0,44(sp)
  402490:	0c10bde7 	jal	42f79c <_init+0x2e0b0>
  402494:	afa00030 	sw	zero,48(sp)
  402498:	04400046 	bltz	v0,4025b4 <_init+0xec8>
  40249c:	26310004 	addiu	s1,s1,4
  4024a0:	8e040000 	lw	a0,0(s0)
  4024a4:	0c10c340 	jal	430d00 <_init+0x2f614>
  4024a8:	26100004 	addiu	s0,s0,4
  4024ac:	0440004c 	bltz	v0,4025e0 <_init+0xef4>
  4024b0:	24020002 	li	v0,2
  4024b4:	26520001 	addiu	s2,s2,1
  4024b8:	1642ffdb 	bne	s2,v0,402428 <_init+0xd3c>
  4024bc:	8fbf0054 	lw	ra,84(sp)
  4024c0:	8fb60050 	lw	s6,80(sp)
  4024c4:	8fb5004c 	lw	s5,76(sp)
  4024c8:	8fb40048 	lw	s4,72(sp)
  4024cc:	8fb30044 	lw	s3,68(sp)
  4024d0:	8fb20040 	lw	s2,64(sp)
  4024d4:	8fb1003c 	lw	s1,60(sp)
  4024d8:	8fb00038 	lw	s0,56(sp)
  4024dc:	00001021 	move	v0,zero
  4024e0:	03e00008 	jr	ra
  4024e4:	27bd0058 	addiu	sp,sp,88
  4024e8:	2402002b 	li	v0,43
  4024ec:	afb60024 	sw	s6,36(sp)
  4024f0:	1000ffe3 	b	402480 <_init+0xd94>
  4024f4:	afa20028 	sw	v0,40(sp)
  4024f8:	3c060048 	lui	a2,0x48
  4024fc:	3c040047 	lui	a0,0x47
  402500:	3c050047 	lui	a1,0x47
  402504:	24844cf0 	addiu	a0,a0,19696
  402508:	24c6d9b8 	addiu	a2,a2,-9800
  40250c:	24070033 	li	a3,51
  402510:	0c12580c 	jal	496030 <printf@plt>
  402514:	24a5517c 	addiu	a1,a1,20860
  402518:	3c040047 	lui	a0,0x47
  40251c:	24844f98 	addiu	a0,a0,20376
  402520:	0c12580c 	jal	496030 <printf@plt>
  402524:	02402821 	move	a1,s2
  402528:	3c040047 	lui	a0,0x47
  40252c:	0c12580c 	jal	496030 <printf@plt>
  402530:	24844d20 	addiu	a0,a0,19744
  402534:	8fbf0054 	lw	ra,84(sp)
  402538:	8fb60050 	lw	s6,80(sp)
  40253c:	8fb5004c 	lw	s5,76(sp)
  402540:	8fb40048 	lw	s4,72(sp)
  402544:	8fb30044 	lw	s3,68(sp)
  402548:	8fb20040 	lw	s2,64(sp)
  40254c:	8fb1003c 	lw	s1,60(sp)
  402550:	8fb00038 	lw	s0,56(sp)
  402554:	2402ffff 	li	v0,-1
  402558:	03e00008 	jr	ra
  40255c:	27bd0058 	addiu	sp,sp,88
  402560:	3c060048 	lui	a2,0x48
  402564:	3c040047 	lui	a0,0x47
  402568:	3c050047 	lui	a1,0x47
  40256c:	24844cf0 	addiu	a0,a0,19696
  402570:	24c6d9b8 	addiu	a2,a2,-9800
  402574:	24070039 	li	a3,57
  402578:	0c12580c 	jal	496030 <printf@plt>
  40257c:	24a5517c 	addiu	a1,a1,20860
  402580:	3c040047 	lui	a0,0x47
  402584:	1000ffe6 	b	402520 <_init+0xe34>
  402588:	24844fbc 	addiu	a0,a0,20412
  40258c:	3c040047 	lui	a0,0x47
  402590:	3c050047 	lui	a1,0x47
  402594:	24844cf0 	addiu	a0,a0,19696
  402598:	24c6d9b8 	addiu	a2,a2,-9800
  40259c:	2407003f 	li	a3,63
  4025a0:	0c12580c 	jal	496030 <printf@plt>
  4025a4:	24a5517c 	addiu	a1,a1,20860
  4025a8:	3c040047 	lui	a0,0x47
  4025ac:	1000ffdc 	b	402520 <_init+0xe34>
  4025b0:	24844fe8 	addiu	a0,a0,20456
  4025b4:	3c060048 	lui	a2,0x48
  4025b8:	3c040047 	lui	a0,0x47
  4025bc:	3c050047 	lui	a1,0x47
  4025c0:	24844cf0 	addiu	a0,a0,19696
  4025c4:	24c6d9b8 	addiu	a2,a2,-9800
  4025c8:	2407005c 	li	a3,92
  4025cc:	0c12580c 	jal	496030 <printf@plt>
  4025d0:	24a5517c 	addiu	a1,a1,20860
  4025d4:	3c040047 	lui	a0,0x47
  4025d8:	1000ffd1 	b	402520 <_init+0xe34>
  4025dc:	2484500c 	addiu	a0,a0,20492
  4025e0:	3c060048 	lui	a2,0x48
  4025e4:	3c040047 	lui	a0,0x47
  4025e8:	3c050047 	lui	a1,0x47
  4025ec:	24844cf0 	addiu	a0,a0,19696
  4025f0:	24c6d9b8 	addiu	a2,a2,-9800
  4025f4:	24070063 	li	a3,99
  4025f8:	0c12580c 	jal	496030 <printf@plt>
  4025fc:	24a5517c 	addiu	a1,a1,20860
  402600:	3c040047 	lui	a0,0x47
  402604:	1000ffc6 	b	402520 <_init+0xe34>
  402608:	24845038 	addiu	a0,a0,20536
  40260c:	27bdffc0 	addiu	sp,sp,-64
  402610:	afb0001c 	sw	s0,28(sp)
  402614:	3c10004b 	lui	s0,0x4b
  402618:	afb10020 	sw	s1,32(sp)
  40261c:	261061cc 	addiu	s0,s0,25036
  402620:	3c11004a 	lui	s1,0x4a
  402624:	3c040047 	lui	a0,0x47
  402628:	3c050047 	lui	a1,0x47
  40262c:	3c020047 	lui	v0,0x47
  402630:	afb70038 	sw	s7,56(sp)
  402634:	afb60034 	sw	s6,52(sp)
  402638:	afb50030 	sw	s5,48(sp)
  40263c:	afb4002c 	sw	s4,44(sp)
  402640:	afb30028 	sw	s3,40(sp)
  402644:	afb20024 	sw	s2,36(sp)
  402648:	afbf003c 	sw	ra,60(sp)
  40264c:	263171c0 	addiu	s1,s1,29120
  402650:	26120008 	addiu	s2,s0,8
  402654:	24964cf0 	addiu	s6,a0,19696
  402658:	24b55188 	addiu	s5,a1,20872
  40265c:	3c140048 	lui	s4,0x48
  402660:	24575060 	addiu	s7,v0,20576
  402664:	3c130047 	lui	s3,0x47
  402668:	8e040000 	lw	a0,0(s0)
  40266c:	8e250000 	lw	a1,0(s1)
  402670:	0c10c2c6 	jal	430b18 <_init+0x2f42c>
  402674:	00003021 	move	a2,zero
  402678:	0440001b 	bltz	v0,4026e8 <_init+0xffc>
  40267c:	2686d9b8 	addiu	a2,s4,-9800
  402680:	8e250000 	lw	a1,0(s1)
  402684:	0c10bbc7 	jal	42ef1c <_init+0x2d830>
  402688:	8e040000 	lw	a0,0(s0)
  40268c:	04400023 	bltz	v0,40271c <_init+0x1030>
  402690:	02a02821 	move	a1,s5
  402694:	8e040000 	lw	a0,0(s0)
  402698:	26310004 	addiu	s1,s1,4
  40269c:	0c10baad 	jal	42eab4 <_init+0x2d3c8>
  4026a0:	26100004 	addiu	s0,s0,4
  4026a4:	0c10b908 	jal	42e420 <_init+0x2cd34>
  4026a8:	8e24fffc 	lw	a0,-4(s1)
  4026ac:	04400026 	bltz	v0,402748 <_init+0x105c>
  4026b0:	3c050047 	lui	a1,0x47
  4026b4:	1612ffec 	bne	s0,s2,402668 <_init+0xf7c>
  4026b8:	00001021 	move	v0,zero
  4026bc:	8fbf003c 	lw	ra,60(sp)
  4026c0:	8fb70038 	lw	s7,56(sp)
  4026c4:	8fb60034 	lw	s6,52(sp)
  4026c8:	8fb50030 	lw	s5,48(sp)
  4026cc:	8fb4002c 	lw	s4,44(sp)
  4026d0:	8fb30028 	lw	s3,40(sp)
  4026d4:	8fb20024 	lw	s2,36(sp)
  4026d8:	8fb10020 	lw	s1,32(sp)
  4026dc:	8fb0001c 	lw	s0,28(sp)
  4026e0:	03e00008 	jr	ra
  4026e4:	27bd0040 	addiu	sp,sp,64
  4026e8:	24070080 	li	a3,128
  4026ec:	02a02821 	move	a1,s5
  4026f0:	0c12580c 	jal	496030 <printf@plt>
  4026f4:	02c02021 	move	a0,s6
  4026f8:	0c12589c 	jal	496270 <puts@plt>
  4026fc:	02e02021 	move	a0,s7
  402700:	0c12580c 	jal	496030 <printf@plt>
  402704:	26644d20 	addiu	a0,s3,19744
  402708:	8e250000 	lw	a1,0(s1)
  40270c:	0c10bbc7 	jal	42ef1c <_init+0x2d830>
  402710:	8e040000 	lw	a0,0(s0)
  402714:	0441ffdf 	bgez	v0,402694 <_init+0xfa8>
  402718:	02a02821 	move	a1,s5
  40271c:	2686d9b8 	addiu	a2,s4,-9800
  402720:	24070085 	li	a3,133
  402724:	0c12580c 	jal	496030 <printf@plt>
  402728:	02c02021 	move	a0,s6
  40272c:	3c040047 	lui	a0,0x47
  402730:	0c12589c 	jal	496270 <puts@plt>
  402734:	24845088 	addiu	a0,a0,20616
  402738:	0c12580c 	jal	496030 <printf@plt>
  40273c:	26644d20 	addiu	a0,s3,19744
  402740:	1000ffd5 	b	402698 <_init+0xfac>
  402744:	8e040000 	lw	a0,0(s0)
  402748:	3c060048 	lui	a2,0x48
  40274c:	3c040047 	lui	a0,0x47
  402750:	24a55188 	addiu	a1,a1,20872
  402754:	24c6d9b8 	addiu	a2,a2,-9800
  402758:	2407008d 	li	a3,141
  40275c:	0c12580c 	jal	496030 <printf@plt>
  402760:	24844cf0 	addiu	a0,a0,19696
  402764:	3c040047 	lui	a0,0x47
  402768:	0c12589c 	jal	496270 <puts@plt>
  40276c:	248450b0 	addiu	a0,a0,20656
  402770:	3c040047 	lui	a0,0x47
  402774:	0c12580c 	jal	496030 <printf@plt>
  402778:	24844d20 	addiu	a0,a0,19744
  40277c:	1000ffcf 	b	4026bc <_init+0xfd0>
  402780:	2402ffff 	li	v0,-1
  402784:	27bdffd8 	addiu	sp,sp,-40
  402788:	3c060040 	lui	a2,0x40
  40278c:	27a40018 	addiu	a0,sp,24
  402790:	00002821 	move	a1,zero
  402794:	24c62020 	addiu	a2,a2,8224
  402798:	afbf0024 	sw	ra,36(sp)
  40279c:	0c125888 	jal	496220 <pthread_create@plt>
  4027a0:	00003821 	move	a3,zero
  4027a4:	14400005 	bnez	v0,4027bc <_init+0x10d0>
  4027a8:	00001821 	move	v1,zero
  4027ac:	8fbf0024 	lw	ra,36(sp)
  4027b0:	00601021 	move	v0,v1
  4027b4:	03e00008 	jr	ra
  4027b8:	27bd0028 	addiu	sp,sp,40
  4027bc:	3c050047 	lui	a1,0x47
  4027c0:	3c060048 	lui	a2,0x48
  4027c4:	3c040047 	lui	a0,0x47
  4027c8:	24a55194 	addiu	a1,a1,20884
  4027cc:	24c6d9b8 	addiu	a2,a2,-9800
  4027d0:	24070137 	li	a3,311
  4027d4:	0c12580c 	jal	496030 <printf@plt>
  4027d8:	24844cf0 	addiu	a0,a0,19696
  4027dc:	3c040047 	lui	a0,0x47
  4027e0:	0c12589c 	jal	496270 <puts@plt>
  4027e4:	248450d0 	addiu	a0,a0,20688
  4027e8:	3c040047 	lui	a0,0x47
  4027ec:	0c12580c 	jal	496030 <printf@plt>
  4027f0:	24844d20 	addiu	a0,a0,19744
  4027f4:	1000ffed 	b	4027ac <_init+0x10c0>
  4027f8:	2403ffff 	li	v1,-1
  4027fc:	00000000 	nop
  402800:	27bdffd0 	addiu	sp,sp,-48
  402804:	afb30024 	sw	s3,36(sp)
  402808:	8cb30004 	lw	s3,4(a1)
  40280c:	afbf002c 	sw	ra,44(sp)
  402810:	afb40028 	sw	s4,40(sp)
  402814:	afb20020 	sw	s2,32(sp)
  402818:	afb1001c 	sw	s1,28(sp)
  40281c:	1a60002f 	blez	s3,4028dc <_init+0x11f0>
  402820:	afb00018 	sw	s0,24(sp)
  402824:	00a09021 	move	s2,a1
  402828:	0080a021 	move	s4,a0
  40282c:	8ca30000 	lw	v1,0(a1)
  402830:	10000003 	b	402840 <_init+0x1154>
  402834:	00008021 	move	s0,zero
  402838:	12700029 	beq	s3,s0,4028e0 <_init+0x11f4>
  40283c:	8fbf002c 	lw	ra,44(sp)
  402840:	00108940 	sll	s1,s0,0x5
  402844:	00711821 	addu	v1,v1,s1
  402848:	8c660008 	lw	a2,8(v1)
  40284c:	8c650004 	lw	a1,4(v1)
  402850:	02802021 	move	a0,s4
  402854:	0c1258d8 	jal	496360 <write@plt>
  402858:	26100001 	addiu	s0,s0,1
  40285c:	8e430000 	lw	v1,0(s2)
  402860:	00718821 	addu	s1,v1,s1
  402864:	8e260008 	lw	a2,8(s1)
  402868:	10c2fff3 	beq	a2,v0,402838 <_init+0x114c>
  40286c:	3c060047 	lui	a2,0x47
  402870:	3c050047 	lui	a1,0x47
  402874:	3c040047 	lui	a0,0x47
  402878:	24c651d0 	addiu	a2,a2,20944
  40287c:	240700a8 	li	a3,168
  402880:	24a555f0 	addiu	a1,a1,22000
  402884:	0c12580c 	jal	496030 <printf@plt>
  402888:	24844cf0 	addiu	a0,a0,19696
  40288c:	0c1258fc 	jal	4963f0 <__errno_location@plt>
  402890:	00000000 	nop
  402894:	0c1258a0 	jal	496280 <strerror@plt>
  402898:	8c440000 	lw	a0,0(v0)
  40289c:	3c040047 	lui	a0,0x47
  4028a0:	00402821 	move	a1,v0
  4028a4:	0c12580c 	jal	496030 <printf@plt>
  4028a8:	248451d8 	addiu	a0,a0,20952
  4028ac:	3c040047 	lui	a0,0x47
  4028b0:	0c12580c 	jal	496030 <printf@plt>
  4028b4:	24844d20 	addiu	a0,a0,19744
  4028b8:	8fbf002c 	lw	ra,44(sp)
  4028bc:	8fb40028 	lw	s4,40(sp)
  4028c0:	8fb30024 	lw	s3,36(sp)
  4028c4:	8fb20020 	lw	s2,32(sp)
  4028c8:	8fb1001c 	lw	s1,28(sp)
  4028cc:	8fb00018 	lw	s0,24(sp)
  4028d0:	2402ffff 	li	v0,-1
  4028d4:	03e00008 	jr	ra
  4028d8:	27bd0030 	addiu	sp,sp,48
  4028dc:	8fbf002c 	lw	ra,44(sp)
  4028e0:	8fb40028 	lw	s4,40(sp)
  4028e4:	8fb30024 	lw	s3,36(sp)
  4028e8:	8fb20020 	lw	s2,32(sp)
  4028ec:	8fb1001c 	lw	s1,28(sp)
  4028f0:	8fb00018 	lw	s0,24(sp)
  4028f4:	00001021 	move	v0,zero
  4028f8:	03e00008 	jr	ra
  4028fc:	27bd0030 	addiu	sp,sp,48
  402900:	27bdffc0 	addiu	sp,sp,-64
  402904:	27a50018 	addiu	a1,sp,24
  402908:	afb10034 	sw	s1,52(sp)
  40290c:	afbf003c 	sw	ra,60(sp)
  402910:	afb20038 	sw	s2,56(sp)
  402914:	afb00030 	sw	s0,48(sp)
  402918:	0c102bc2 	jal	40af08 <_init+0x981c>
  40291c:	00808821 	move	s1,a0
  402920:	04400026 	bltz	v0,4029bc <_init+0x12d0>
  402924:	3c040047 	lui	a0,0x47
  402928:	93a20018 	lbu	v0,24(sp)
  40292c:	14400008 	bnez	v0,402950 <_init+0x1264>
  402930:	00008021 	move	s0,zero
  402934:	8fbf003c 	lw	ra,60(sp)
  402938:	02001021 	move	v0,s0
  40293c:	8fb20038 	lw	s2,56(sp)
  402940:	8fb10034 	lw	s1,52(sp)
  402944:	8fb00030 	lw	s0,48(sp)
  402948:	03e00008 	jr	ra
  40294c:	27bd0040 	addiu	sp,sp,64
  402950:	0c102b4f 	jal	40ad3c <_init+0x9650>
  402954:	02202021 	move	a0,s1
  402958:	0440002b 	bltz	v0,402a08 <_init+0x131c>
  40295c:	00409021 	move	s2,v0
  402960:	0c102dc8 	jal	40b720 <_init+0xa034>
  402964:	02202021 	move	a0,s1
  402968:	0441fff2 	bgez	v0,402934 <_init+0x1248>
  40296c:	00409021 	move	s2,v0
  402970:	3c040047 	lui	a0,0x47
  402974:	3c050047 	lui	a1,0x47
  402978:	3c060047 	lui	a2,0x47
  40297c:	2407020a 	li	a3,522
  402980:	24844cf0 	addiu	a0,a0,19696
  402984:	24a55630 	addiu	a1,a1,22064
  402988:	0c12580c 	jal	496030 <printf@plt>
  40298c:	24c651d0 	addiu	a2,a2,20944
  402990:	3c040047 	lui	a0,0x47
  402994:	24845240 	addiu	a0,a0,21056
  402998:	02202821 	move	a1,s1
  40299c:	0c12580c 	jal	496030 <printf@plt>
  4029a0:	02403021 	move	a2,s2
  4029a4:	3c040047 	lui	a0,0x47
  4029a8:	24844d20 	addiu	a0,a0,19744
  4029ac:	0c12580c 	jal	496030 <printf@plt>
  4029b0:	2410ffff 	li	s0,-1
  4029b4:	1000ffe0 	b	402938 <_init+0x124c>
  4029b8:	8fbf003c 	lw	ra,60(sp)
  4029bc:	3c050047 	lui	a1,0x47
  4029c0:	3c060047 	lui	a2,0x47
  4029c4:	24844cf0 	addiu	a0,a0,19696
  4029c8:	24a55630 	addiu	a1,a1,22064
  4029cc:	24c651d0 	addiu	a2,a2,20944
  4029d0:	240701fb 	li	a3,507
  4029d4:	0c12580c 	jal	496030 <printf@plt>
  4029d8:	00408021 	move	s0,v0
  4029dc:	3c040047 	lui	a0,0x47
  4029e0:	248451f0 	addiu	a0,a0,20976
  4029e4:	02202821 	move	a1,s1
  4029e8:	02003021 	move	a2,s0
  4029ec:	0c12580c 	jal	496030 <printf@plt>
  4029f0:	2410ffff 	li	s0,-1
  4029f4:	3c040047 	lui	a0,0x47
  4029f8:	0c12580c 	jal	496030 <printf@plt>
  4029fc:	24844d20 	addiu	a0,a0,19744
  402a00:	1000ffcd 	b	402938 <_init+0x124c>
  402a04:	8fbf003c 	lw	ra,60(sp)
  402a08:	3c040047 	lui	a0,0x47
  402a0c:	3c050047 	lui	a1,0x47
  402a10:	3c060047 	lui	a2,0x47
  402a14:	24844cf0 	addiu	a0,a0,19696
  402a18:	24a55630 	addiu	a1,a1,22064
  402a1c:	24c651d0 	addiu	a2,a2,20944
  402a20:	0c12580c 	jal	496030 <printf@plt>
  402a24:	24070203 	li	a3,515
  402a28:	3c040047 	lui	a0,0x47
  402a2c:	24845214 	addiu	a0,a0,21012
  402a30:	02202821 	move	a1,s1
  402a34:	1000ffed 	b	4029ec <_init+0x1300>
  402a38:	02403021 	move	a2,s2
  402a3c:	27bdffd8 	addiu	sp,sp,-40
  402a40:	2c820002 	sltiu	v0,a0,2
  402a44:	afbf0024 	sw	ra,36(sp)
  402a48:	afb10020 	sw	s1,32(sp)
  402a4c:	10400022 	beqz	v0,402ad8 <_init+0x13ec>
  402a50:	afb0001c 	sw	s0,28(sp)
  402a54:	3c10004b 	lui	s0,0x4b
  402a58:	2602f3a0 	addiu	v0,s0,-3168
  402a5c:	8c420004 	lw	v0,4(v0)
  402a60:	14400007 	bnez	v0,402a80 <_init+0x1394>
  402a64:	00000000 	nop
  402a68:	00001021 	move	v0,zero
  402a6c:	8fbf0024 	lw	ra,36(sp)
  402a70:	8fb10020 	lw	s1,32(sp)
  402a74:	8fb0001c 	lw	s0,28(sp)
  402a78:	03e00008 	jr	ra
  402a7c:	27bd0028 	addiu	sp,sp,40
  402a80:	0c109ddf 	jal	42777c <_init+0x26090>
  402a84:	8e04f3a0 	lw	a0,-3168(s0)
  402a88:	0441fff7 	bgez	v0,402a68 <_init+0x137c>
  402a8c:	00408821 	move	s1,v0
  402a90:	3c040047 	lui	a0,0x47
  402a94:	3c050047 	lui	a1,0x47
  402a98:	3c060047 	lui	a2,0x47
  402a9c:	24070166 	li	a3,358
  402aa0:	24844cf0 	addiu	a0,a0,19696
  402aa4:	24a555cc 	addiu	a1,a1,21964
  402aa8:	0c12580c 	jal	496030 <printf@plt>
  402aac:	24c651d0 	addiu	a2,a2,20944
  402ab0:	8e06f3a0 	lw	a2,-3168(s0)
  402ab4:	3c040047 	lui	a0,0x47
  402ab8:	24845284 	addiu	a0,a0,21124
  402abc:	0c12580c 	jal	496030 <printf@plt>
  402ac0:	02202821 	move	a1,s1
  402ac4:	3c040047 	lui	a0,0x47
  402ac8:	0c12580c 	jal	496030 <printf@plt>
  402acc:	24844d20 	addiu	a0,a0,19744
  402ad0:	1000ffe6 	b	402a6c <_init+0x1380>
  402ad4:	2402ffff 	li	v0,-1
  402ad8:	00808021 	move	s0,a0
  402adc:	3c060047 	lui	a2,0x47
  402ae0:	3c040047 	lui	a0,0x47
  402ae4:	3c050047 	lui	a1,0x47
  402ae8:	24c651d0 	addiu	a2,a2,20944
  402aec:	2407015a 	li	a3,346
  402af0:	24844cf0 	addiu	a0,a0,19696
  402af4:	0c12580c 	jal	496030 <printf@plt>
  402af8:	24a555cc 	addiu	a1,a1,21964
  402afc:	3c040047 	lui	a0,0x47
  402b00:	24845268 	addiu	a0,a0,21096
  402b04:	0c12580c 	jal	496030 <printf@plt>
  402b08:	02002821 	move	a1,s0
  402b0c:	3c040047 	lui	a0,0x47
  402b10:	0c12580c 	jal	496030 <printf@plt>
  402b14:	24844d20 	addiu	a0,a0,19744
  402b18:	1000ffd4 	b	402a6c <_init+0x1380>
  402b1c:	2402ffff 	li	v0,-1
  402b20:	27bdffc0 	addiu	sp,sp,-64
  402b24:	3c02004b 	lui	v0,0x4b
  402b28:	3c060040 	lui	a2,0x40
  402b2c:	afb10024 	sw	s1,36(sp)
  402b30:	3c050047 	lui	a1,0x47
  402b34:	3c11004b 	lui	s1,0x4b
  402b38:	afb60038 	sw	s6,56(sp)
  402b3c:	afb50034 	sw	s5,52(sp)
  402b40:	afb40030 	sw	s4,48(sp)
  402b44:	afb3002c 	sw	s3,44(sp)
  402b48:	afb20028 	sw	s2,40(sp)
  402b4c:	afb00020 	sw	s0,32(sp)
  402b50:	afbf003c 	sw	ra,60(sp)
  402b54:	2631f3a4 	addiu	s1,s1,-3164
  402b58:	00008021 	move	s0,zero
  402b5c:	2456f3a0 	addiu	s6,v0,-3168
  402b60:	24d22cf8 	addiu	s2,a2,11512
  402b64:	3c140047 	lui	s4,0x47
  402b68:	24b555fc 	addiu	s5,a1,22012
  402b6c:	3c130047 	lui	s3,0x47
  402b70:	8e220000 	lw	v0,0(s1)
  402b74:	14400010 	bnez	v0,402bb8 <_init+0x14cc>
  402b78:	00102080 	sll	a0,s0,0x2
  402b7c:	26100001 	addiu	s0,s0,1
  402b80:	24020002 	li	v0,2
  402b84:	1602fffa 	bne	s0,v0,402b70 <_init+0x1484>
  402b88:	26310068 	addiu	s1,s1,104
  402b8c:	8fbf003c 	lw	ra,60(sp)
  402b90:	8fb60038 	lw	s6,56(sp)
  402b94:	8fb50034 	lw	s5,52(sp)
  402b98:	8fb40030 	lw	s4,48(sp)
  402b9c:	8fb3002c 	lw	s3,44(sp)
  402ba0:	8fb20028 	lw	s2,40(sp)
  402ba4:	8fb10024 	lw	s1,36(sp)
  402ba8:	8fb00020 	lw	s0,32(sp)
  402bac:	00001021 	move	v0,zero
  402bb0:	03e00008 	jr	ra
  402bb4:	27bd0040 	addiu	sp,sp,64
  402bb8:	00103900 	sll	a3,s0,0x4
  402bbc:	00e43823 	subu	a3,a3,a0
  402bc0:	00f03821 	addu	a3,a3,s0
  402bc4:	27a20018 	addiu	v0,sp,24
  402bc8:	000738c0 	sll	a3,a3,0x3
  402bcc:	00442021 	addu	a0,v0,a0
  402bd0:	00002821 	move	a1,zero
  402bd4:	02403021 	move	a2,s2
  402bd8:	0c125888 	jal	496220 <pthread_create@plt>
  402bdc:	02c73821 	addu	a3,s6,a3
  402be0:	0441ffe6 	bgez	v0,402b7c <_init+0x1490>
  402be4:	266651d0 	addiu	a2,s3,20944
  402be8:	240701d2 	li	a3,466
  402bec:	26844cf0 	addiu	a0,s4,19696
  402bf0:	0c12580c 	jal	496030 <printf@plt>
  402bf4:	02a02821 	move	a1,s5
  402bf8:	8e25fffc 	lw	a1,-4(s1)
  402bfc:	3c040047 	lui	a0,0x47
  402c00:	0c12580c 	jal	496030 <printf@plt>
  402c04:	248452b0 	addiu	a0,a0,21168
  402c08:	3c040047 	lui	a0,0x47
  402c0c:	0c12580c 	jal	496030 <printf@plt>
  402c10:	24844d20 	addiu	a0,a0,19744
  402c14:	1000ffda 	b	402b80 <_init+0x1494>
  402c18:	26100001 	addiu	s0,s0,1
  402c1c:	27bdffd8 	addiu	sp,sp,-40
  402c20:	3c02004b 	lui	v0,0x4b
  402c24:	afb00018 	sw	s0,24(sp)
  402c28:	2450f3a0 	addiu	s0,v0,-3168
  402c2c:	8e030004 	lw	v1,4(s0)
  402c30:	afbf0024 	sw	ra,36(sp)
  402c34:	afb20020 	sw	s2,32(sp)
  402c38:	14600012 	bnez	v1,402c84 <_init+0x1598>
  402c3c:	afb1001c 	sw	s1,28(sp)
  402c40:	8e02006c 	lw	v0,108(s0)
  402c44:	14400008 	bnez	v0,402c68 <_init+0x157c>
  402c48:	00000000 	nop
  402c4c:	00001021 	move	v0,zero
  402c50:	8fbf0024 	lw	ra,36(sp)
  402c54:	8fb20020 	lw	s2,32(sp)
  402c58:	8fb1001c 	lw	s1,28(sp)
  402c5c:	8fb00018 	lw	s0,24(sp)
  402c60:	03e00008 	jr	ra
  402c64:	27bd0028 	addiu	sp,sp,40
  402c68:	8e040068 	lw	a0,104(s0)
  402c6c:	0c10a254 	jal	428950 <_init+0x27264>
  402c70:	24120001 	li	s2,1
  402c74:	0441fff5 	bgez	v0,402c4c <_init+0x1560>
  402c78:	00408821 	move	s1,v0
  402c7c:	10000007 	b	402c9c <_init+0x15b0>
  402c80:	3c040047 	lui	a0,0x47
  402c84:	0c10a254 	jal	428950 <_init+0x27264>
  402c88:	8c44f3a0 	lw	a0,-3168(v0)
  402c8c:	0441ffec 	bgez	v0,402c40 <_init+0x1554>
  402c90:	00408821 	move	s1,v0
  402c94:	00009021 	move	s2,zero
  402c98:	3c040047 	lui	a0,0x47
  402c9c:	3c050047 	lui	a1,0x47
  402ca0:	3c060047 	lui	a2,0x47
  402ca4:	240701eb 	li	a3,491
  402ca8:	24844cf0 	addiu	a0,a0,19696
  402cac:	24a55618 	addiu	a1,a1,22040
  402cb0:	0c12580c 	jal	496030 <printf@plt>
  402cb4:	24c651d0 	addiu	a2,a2,20944
  402cb8:	00121900 	sll	v1,s2,0x4
  402cbc:	00121080 	sll	v0,s2,0x2
  402cc0:	00621023 	subu	v0,v1,v0
  402cc4:	00521021 	addu	v0,v0,s2
  402cc8:	000210c0 	sll	v0,v0,0x3
  402ccc:	02028021 	addu	s0,s0,v0
  402cd0:	8e060000 	lw	a2,0(s0)
  402cd4:	3c040047 	lui	a0,0x47
  402cd8:	248452d4 	addiu	a0,a0,21204
  402cdc:	0c12580c 	jal	496030 <printf@plt>
  402ce0:	02202821 	move	a1,s1
  402ce4:	3c040047 	lui	a0,0x47
  402ce8:	0c12580c 	jal	496030 <printf@plt>
  402cec:	24844d20 	addiu	a0,a0,19744
  402cf0:	1000ffd7 	b	402c50 <_init+0x1564>
  402cf4:	2402ffff 	li	v0,-1
  402cf8:	27bdff70 	addiu	sp,sp,-144
  402cfc:	afbf008c 	sw	ra,140(sp)
  402d00:	afb1006c 	sw	s1,108(sp)
  402d04:	afb00068 	sw	s0,104(sp)
  402d08:	afbe0088 	sw	s8,136(sp)
  402d0c:	00808021 	move	s0,a0
  402d10:	afb70084 	sw	s7,132(sp)
  402d14:	afb60080 	sw	s6,128(sp)
  402d18:	afb5007c 	sw	s5,124(sp)
  402d1c:	afb40078 	sw	s4,120(sp)
  402d20:	afb30074 	sw	s3,116(sp)
  402d24:	0c125830 	jal	4960c0 <pthread_self@plt>
  402d28:	afb20070 	sw	s2,112(sp)
  402d2c:	0c125960 	jal	496580 <pthread_detach@plt>
  402d30:	00402021 	move	a0,v0
  402d34:	8e110000 	lw	s1,0(s0)
  402d38:	0c100a8f 	jal	402a3c <_init+0x1350>
  402d3c:	02202021 	move	a0,s1
  402d40:	0c102b8a 	jal	40ae28 <_init+0x973c>
  402d44:	02202021 	move	a0,s1
  402d48:	0440007f 	bltz	v0,402f48 <_init+0x185c>
  402d4c:	3c060047 	lui	a2,0x47
  402d50:	3c050047 	lui	a1,0x47
  402d54:	27a40018 	addiu	a0,sp,24
  402d58:	24a55328 	addiu	a1,a1,21288
  402d5c:	24c6533c 	addiu	a2,a2,21308
  402d60:	02203821 	move	a3,s1
  402d64:	3c100047 	lui	s0,0x47
  402d68:	3c150047 	lui	s5,0x47
  402d6c:	0c125950 	jal	496540 <sprintf@plt>
  402d70:	3c140047 	lui	s4,0x47
  402d74:	268651d0 	addiu	a2,s4,20944
  402d78:	2407018d 	li	a3,397
  402d7c:	26044cb4 	addiu	a0,s0,19636
  402d80:	0c12580c 	jal	496030 <printf@plt>
  402d84:	26a555d8 	addiu	a1,s5,21976
  402d88:	3c040047 	lui	a0,0x47
  402d8c:	24845344 	addiu	a0,a0,21316
  402d90:	0c12580c 	jal	496030 <printf@plt>
  402d94:	27a50018 	addiu	a1,sp,24
  402d98:	27a40018 	addiu	a0,sp,24
  402d9c:	24050302 	li	a1,770
  402da0:	0c1258b0 	jal	4962c0 <open@plt>
  402da4:	240601ff 	li	a2,511
  402da8:	04400075 	bltz	v0,402f80 <_init+0x1894>
  402dac:	00409821 	move	s3,v0
  402db0:	26044cb4 	addiu	a0,s0,19636
  402db4:	26a555d8 	addiu	a1,s5,21976
  402db8:	268651d0 	addiu	a2,s4,20944
  402dbc:	0c12580c 	jal	496030 <printf@plt>
  402dc0:	24070193 	li	a3,403
  402dc4:	3c040047 	lui	a0,0x47
  402dc8:	24845368 	addiu	a0,a0,21352
  402dcc:	3c1e0047 	lui	s8,0x47
  402dd0:	3c170047 	lui	s7,0x47
  402dd4:	0c12589c 	jal	496270 <puts@plt>
  402dd8:	241003e8 	li	s0,1000
  402ddc:	27de4cf0 	addiu	s8,s8,19696
  402de0:	26f7536c 	addiu	s7,s7,21356
  402de4:	10000011 	b	402e2c <_init+0x1740>
  402de8:	3c160047 	lui	s6,0x47
  402dec:	02202021 	move	a0,s1
  402df0:	0c102bf3 	jal	40afcc <_init+0x98e0>
  402df4:	24060001 	li	a2,1
  402df8:	0440002b 	bltz	v0,402ea8 <_init+0x17bc>
  402dfc:	3c040047 	lui	a0,0x47
  402e00:	02602021 	move	a0,s3
  402e04:	0c100a00 	jal	402800 <_init+0x1114>
  402e08:	27a50058 	addiu	a1,sp,88
  402e0c:	0440003f 	bltz	v0,402f0c <_init+0x1820>
  402e10:	00409021 	move	s2,v0
  402e14:	02202021 	move	a0,s1
  402e18:	27a50058 	addiu	a1,sp,88
  402e1c:	0c102c62 	jal	40b188 <_init+0x9a9c>
  402e20:	2610ffff 	addiu	s0,s0,-1
  402e24:	12000012 	beqz	s0,402e70 <_init+0x1784>
  402e28:	00000000 	nop
  402e2c:	02202021 	move	a0,s1
  402e30:	0c102cde 	jal	40b378 <_init+0x9c8c>
  402e34:	240503e8 	li	a1,1000
  402e38:	0441ffec 	bgez	v0,402dec <_init+0x1700>
  402e3c:	27a50058 	addiu	a1,sp,88
  402e40:	26a555d8 	addiu	a1,s5,21976
  402e44:	268651d0 	addiu	a2,s4,20944
  402e48:	2407019a 	li	a3,410
  402e4c:	0c12580c 	jal	496030 <printf@plt>
  402e50:	03c02021 	move	a0,s8
  402e54:	02e02021 	move	a0,s7
  402e58:	0c12589c 	jal	496270 <puts@plt>
  402e5c:	2610ffff 	addiu	s0,s0,-1
  402e60:	0c12580c 	jal	496030 <printf@plt>
  402e64:	26c44d20 	addiu	a0,s6,19744
  402e68:	1600fff1 	bnez	s0,402e30 <_init+0x1744>
  402e6c:	02202021 	move	a0,s1
  402e70:	0c125970 	jal	4965c0 <close@plt>
  402e74:	02602021 	move	a0,s3
  402e78:	0c102d39 	jal	40b4e4 <_init+0x9df8>
  402e7c:	02202021 	move	a0,s1
  402e80:	0441004f 	bgez	v0,402fc0 <_init+0x18d4>
  402e84:	3c040047 	lui	a0,0x47
  402e88:	24844cf0 	addiu	a0,a0,19696
  402e8c:	26a555d8 	addiu	a1,s5,21976
  402e90:	268651d0 	addiu	a2,s4,20944
  402e94:	0c12580c 	jal	496030 <printf@plt>
  402e98:	240701b6 	li	a3,438
  402e9c:	3c040047 	lui	a0,0x47
  402ea0:	10000008 	b	402ec4 <_init+0x17d8>
  402ea4:	248453a4 	addiu	a0,a0,21412
  402ea8:	24844cf0 	addiu	a0,a0,19696
  402eac:	26a555d8 	addiu	a1,s5,21976
  402eb0:	268651d0 	addiu	a2,s4,20944
  402eb4:	0c12580c 	jal	496030 <printf@plt>
  402eb8:	240701a3 	li	a3,419
  402ebc:	3c040047 	lui	a0,0x47
  402ec0:	24845384 	addiu	a0,a0,21380
  402ec4:	0c12589c 	jal	496270 <puts@plt>
  402ec8:	00000000 	nop
  402ecc:	3c040047 	lui	a0,0x47
  402ed0:	0c12580c 	jal	496030 <printf@plt>
  402ed4:	24844d20 	addiu	a0,a0,19744
  402ed8:	8fbf008c 	lw	ra,140(sp)
  402edc:	8fbe0088 	lw	s8,136(sp)
  402ee0:	8fb70084 	lw	s7,132(sp)
  402ee4:	8fb60080 	lw	s6,128(sp)
  402ee8:	8fb5007c 	lw	s5,124(sp)
  402eec:	8fb40078 	lw	s4,120(sp)
  402ef0:	8fb30074 	lw	s3,116(sp)
  402ef4:	8fb20070 	lw	s2,112(sp)
  402ef8:	8fb1006c 	lw	s1,108(sp)
  402efc:	8fb00068 	lw	s0,104(sp)
  402f00:	2402ffff 	li	v0,-1
  402f04:	03e00008 	jr	ra
  402f08:	27bd0090 	addiu	sp,sp,144
  402f0c:	0c125970 	jal	4965c0 <close@plt>
  402f10:	02602021 	move	a0,s3
  402f14:	8fbf008c 	lw	ra,140(sp)
  402f18:	02401021 	move	v0,s2
  402f1c:	8fbe0088 	lw	s8,136(sp)
  402f20:	8fb70084 	lw	s7,132(sp)
  402f24:	8fb60080 	lw	s6,128(sp)
  402f28:	8fb5007c 	lw	s5,124(sp)
  402f2c:	8fb40078 	lw	s4,120(sp)
  402f30:	8fb30074 	lw	s3,116(sp)
  402f34:	8fb20070 	lw	s2,112(sp)
  402f38:	8fb1006c 	lw	s1,108(sp)
  402f3c:	8fb00068 	lw	s0,104(sp)
  402f40:	03e00008 	jr	ra
  402f44:	27bd0090 	addiu	sp,sp,144
  402f48:	3c060047 	lui	a2,0x47
  402f4c:	3c040047 	lui	a0,0x47
  402f50:	3c050047 	lui	a1,0x47
  402f54:	24c651d0 	addiu	a2,a2,20944
  402f58:	24070185 	li	a3,389
  402f5c:	24844cf0 	addiu	a0,a0,19696
  402f60:	0c12580c 	jal	496030 <printf@plt>
  402f64:	24a555d8 	addiu	a1,a1,21976
  402f68:	3c040047 	lui	a0,0x47
  402f6c:	24845300 	addiu	a0,a0,21248
  402f70:	0c12580c 	jal	496030 <printf@plt>
  402f74:	02202821 	move	a1,s1
  402f78:	1000ffd5 	b	402ed0 <_init+0x17e4>
  402f7c:	3c040047 	lui	a0,0x47
  402f80:	3c040047 	lui	a0,0x47
  402f84:	26a555d8 	addiu	a1,s5,21976
  402f88:	268651d0 	addiu	a2,s4,20944
  402f8c:	24070190 	li	a3,400
  402f90:	0c12580c 	jal	496030 <printf@plt>
  402f94:	24844cf0 	addiu	a0,a0,19696
  402f98:	0c1258fc 	jal	4963f0 <__errno_location@plt>
  402f9c:	00000000 	nop
  402fa0:	0c1258a0 	jal	496280 <strerror@plt>
  402fa4:	8c440000 	lw	a0,0(v0)
  402fa8:	3c040047 	lui	a0,0x47
  402fac:	2484535c 	addiu	a0,a0,21340
  402fb0:	0c12580c 	jal	496030 <printf@plt>
  402fb4:	00402821 	move	a1,v0
  402fb8:	1000ffc5 	b	402ed0 <_init+0x17e4>
  402fbc:	3c040047 	lui	a0,0x47
  402fc0:	0c100b07 	jal	402c1c <_init+0x1530>
  402fc4:	00000000 	nop
  402fc8:	0c125924 	jal	496490 <pthread_exit@plt>
  402fcc:	00002021 	move	a0,zero
  402fd0:	27bdffd8 	addiu	sp,sp,-40
  402fd4:	00002021 	move	a0,zero
  402fd8:	afbf0024 	sw	ra,36(sp)
  402fdc:	afb10020 	sw	s1,32(sp)
  402fe0:	0c100a40 	jal	402900 <_init+0x1214>
  402fe4:	afb0001c 	sw	s0,28(sp)
  402fe8:	04400032 	bltz	v0,4030b4 <_init+0x19c8>
  402fec:	3c040047 	lui	a0,0x47
  402ff0:	0c100a40 	jal	402900 <_init+0x1214>
  402ff4:	24040001 	li	a0,1
  402ff8:	0440004e 	bltz	v0,403134 <_init+0x1a48>
  402ffc:	00408021 	move	s0,v0
  403000:	0c102218 	jal	408860 <_init+0x7174>
  403004:	00002021 	move	a0,zero
  403008:	0440003c 	bltz	v0,4030fc <_init+0x1a10>
  40300c:	00408021 	move	s0,v0
  403010:	3c10004b 	lui	s0,0x4b
  403014:	2610f3a0 	addiu	s0,s0,-3168
  403018:	8e020004 	lw	v0,4(s0)
  40301c:	1440001f 	bnez	v0,40309c <_init+0x19b0>
  403020:	00000000 	nop
  403024:	8e02006c 	lw	v0,108(s0)
  403028:	14400007 	bnez	v0,403048 <_init+0x195c>
  40302c:	00000000 	nop
  403030:	00001021 	move	v0,zero
  403034:	8fbf0024 	lw	ra,36(sp)
  403038:	8fb10020 	lw	s1,32(sp)
  40303c:	8fb0001c 	lw	s0,28(sp)
  403040:	03e00008 	jr	ra
  403044:	27bd0028 	addiu	sp,sp,40
  403048:	0c109b3f 	jal	426cfc <_init+0x25610>
  40304c:	24040001 	li	a0,1
  403050:	0441fff7 	bgez	v0,403030 <_init+0x1944>
  403054:	00408821 	move	s1,v0
  403058:	3c060047 	lui	a2,0x47
  40305c:	3c040047 	lui	a0,0x47
  403060:	3c050047 	lui	a1,0x47
  403064:	24c651d0 	addiu	a2,a2,20944
  403068:	24070237 	li	a3,567
  40306c:	24844cf0 	addiu	a0,a0,19696
  403070:	0c12580c 	jal	496030 <printf@plt>
  403074:	24a55624 	addiu	a1,a1,22052
  403078:	3c040047 	lui	a0,0x47
  40307c:	24845414 	addiu	a0,a0,21524
  403080:	0c12580c 	jal	496030 <printf@plt>
  403084:	02202821 	move	a1,s1
  403088:	3c040047 	lui	a0,0x47
  40308c:	0c12580c 	jal	496030 <printf@plt>
  403090:	24844d20 	addiu	a0,a0,19744
  403094:	1000ffe7 	b	403034 <_init+0x1948>
  403098:	2402ffff 	li	v0,-1
  40309c:	0c109b3f 	jal	426cfc <_init+0x25610>
  4030a0:	00002021 	move	a0,zero
  4030a4:	0441ffdf 	bgez	v0,403024 <_init+0x1938>
  4030a8:	00408821 	move	s1,v0
  4030ac:	1000ffeb 	b	40305c <_init+0x1970>
  4030b0:	3c060047 	lui	a2,0x47
  4030b4:	3c050047 	lui	a1,0x47
  4030b8:	3c060047 	lui	a2,0x47
  4030bc:	24844cf0 	addiu	a0,a0,19696
  4030c0:	24a55624 	addiu	a1,a1,22052
  4030c4:	24c651d0 	addiu	a2,a2,20944
  4030c8:	24070224 	li	a3,548
  4030cc:	0c12580c 	jal	496030 <printf@plt>
  4030d0:	00408021 	move	s0,v0
  4030d4:	3c040047 	lui	a0,0x47
  4030d8:	248453c8 	addiu	a0,a0,21448
  4030dc:	00002821 	move	a1,zero
  4030e0:	0c12580c 	jal	496030 <printf@plt>
  4030e4:	02003021 	move	a2,s0
  4030e8:	3c040047 	lui	a0,0x47
  4030ec:	0c12580c 	jal	496030 <printf@plt>
  4030f0:	24844d20 	addiu	a0,a0,19744
  4030f4:	1000ffcf 	b	403034 <_init+0x1948>
  4030f8:	2402ffff 	li	v0,-1
  4030fc:	3c060047 	lui	a2,0x47
  403100:	3c040047 	lui	a0,0x47
  403104:	3c050047 	lui	a1,0x47
  403108:	24c651d0 	addiu	a2,a2,20944
  40310c:	2407022d 	li	a3,557
  403110:	24844cf0 	addiu	a0,a0,19696
  403114:	0c12580c 	jal	496030 <printf@plt>
  403118:	24a55624 	addiu	a1,a1,22052
  40311c:	3c040047 	lui	a0,0x47
  403120:	248453ec 	addiu	a0,a0,21484
  403124:	0c12580c 	jal	496030 <printf@plt>
  403128:	02002821 	move	a1,s0
  40312c:	1000ffef 	b	4030ec <_init+0x1a00>
  403130:	3c040047 	lui	a0,0x47
  403134:	3c040047 	lui	a0,0x47
  403138:	3c050047 	lui	a1,0x47
  40313c:	3c060047 	lui	a2,0x47
  403140:	240702d2 	li	a3,722
  403144:	24844cf0 	addiu	a0,a0,19696
  403148:	24a55644 	addiu	a1,a1,22084
  40314c:	0c12580c 	jal	496030 <printf@plt>
  403150:	24c651d0 	addiu	a2,a2,20944
  403154:	3c040047 	lui	a0,0x47
  403158:	248453c8 	addiu	a0,a0,21448
  40315c:	24050001 	li	a1,1
  403160:	0c12580c 	jal	496030 <printf@plt>
  403164:	02003021 	move	a2,s0
  403168:	3c040047 	lui	a0,0x47
  40316c:	0c12580c 	jal	496030 <printf@plt>
  403170:	24844d20 	addiu	a0,a0,19744
  403174:	1000ffa2 	b	403000 <_init+0x1914>
  403178:	00000000 	nop
  40317c:	27bdff18 	addiu	sp,sp,-232
  403180:	3c02004b 	lui	v0,0x4b
  403184:	afb100d0 	sw	s1,208(sp)
  403188:	3c11004b 	lui	s1,0x4b
  40318c:	afb400dc 	sw	s4,220(sp)
  403190:	afb200d4 	sw	s2,212(sp)
  403194:	afb000cc 	sw	s0,204(sp)
  403198:	afbf00e4 	sw	ra,228(sp)
  40319c:	afb500e0 	sw	s5,224(sp)
  4031a0:	afb300d8 	sw	s3,216(sp)
  4031a4:	2631f3a4 	addiu	s1,s1,-3164
  4031a8:	00008021 	move	s0,zero
  4031ac:	2454f3a0 	addiu	s4,v0,-3168
  4031b0:	24120002 	li	s2,2
  4031b4:	8e220000 	lw	v0,0(s1)
  4031b8:	1440000e 	bnez	v0,4031f4 <_init+0x1b08>
  4031bc:	00101100 	sll	v0,s0,0x4
  4031c0:	26100001 	addiu	s0,s0,1
  4031c4:	1612fffb 	bne	s0,s2,4031b4 <_init+0x1ac8>
  4031c8:	26310068 	addiu	s1,s1,104
  4031cc:	00001021 	move	v0,zero
  4031d0:	8fbf00e4 	lw	ra,228(sp)
  4031d4:	8fb500e0 	lw	s5,224(sp)
  4031d8:	8fb400dc 	lw	s4,220(sp)
  4031dc:	8fb300d8 	lw	s3,216(sp)
  4031e0:	8fb200d4 	lw	s2,212(sp)
  4031e4:	8fb100d0 	lw	s1,208(sp)
  4031e8:	8fb000cc 	lw	s0,204(sp)
  4031ec:	03e00008 	jr	ra
  4031f0:	27bd00e8 	addiu	sp,sp,232
  4031f4:	0010a880 	sll	s5,s0,0x2
  4031f8:	0055a823 	subu	s5,v0,s5
  4031fc:	02b0a821 	addu	s5,s5,s0
  403200:	0015a8c0 	sll	s5,s5,0x3
  403204:	240600ac 	li	a2,172
  403208:	27a40018 	addiu	a0,sp,24
  40320c:	00002821 	move	a1,zero
  403210:	0c1258ec 	jal	4963b0 <memset@plt>
  403214:	26b30008 	addiu	s3,s5,8
  403218:	02939821 	addu	s3,s4,s3
  40321c:	8e24fffc 	lw	a0,-4(s1)
  403220:	8e630000 	lw	v1,0(s3)
  403224:	8e620004 	lw	v0,4(s3)
  403228:	24840002 	addiu	a0,a0,2
  40322c:	27a50018 	addiu	a1,sp,24
  403230:	afa30024 	sw	v1,36(sp)
  403234:	0c102368 	jal	408da0 <_init+0x76b4>
  403238:	afa20028 	sw	v0,40(sp)
  40323c:	00409821 	move	s3,v0
  403240:	04400019 	bltz	v0,4032a8 <_init+0x1bbc>
  403244:	02002021 	move	a0,s0
  403248:	8e25fffc 	lw	a1,-4(s1)
  40324c:	0c102af4 	jal	40abd0 <_init+0x94e4>
  403250:	24a50002 	addiu	a1,a1,2
  403254:	0441ffda 	bgez	v0,4031c0 <_init+0x1ad4>
  403258:	00409821 	move	s3,v0
  40325c:	3c040047 	lui	a0,0x47
  403260:	3c050047 	lui	a1,0x47
  403264:	3c060047 	lui	a2,0x47
  403268:	24844cf0 	addiu	a0,a0,19696
  40326c:	24a55650 	addiu	a1,a1,22096
  403270:	2407026d 	li	a3,621
  403274:	24c651d0 	addiu	a2,a2,20944
  403278:	0c12580c 	jal	496030 <printf@plt>
  40327c:	02b4a021 	addu	s4,s5,s4
  403280:	8e850000 	lw	a1,0(s4)
  403284:	3c040047 	lui	a0,0x47
  403288:	24845464 	addiu	a0,a0,21604
  40328c:	0c12580c 	jal	496030 <printf@plt>
  403290:	02603021 	move	a2,s3
  403294:	3c040047 	lui	a0,0x47
  403298:	0c12580c 	jal	496030 <printf@plt>
  40329c:	24844d20 	addiu	a0,a0,19744
  4032a0:	1000ffcb 	b	4031d0 <_init+0x1ae4>
  4032a4:	2402ffff 	li	v0,-1
  4032a8:	3c040047 	lui	a0,0x47
  4032ac:	3c050047 	lui	a1,0x47
  4032b0:	3c060047 	lui	a2,0x47
  4032b4:	24844cf0 	addiu	a0,a0,19696
  4032b8:	24a55650 	addiu	a1,a1,22096
  4032bc:	24070265 	li	a3,613
  4032c0:	0c12580c 	jal	496030 <printf@plt>
  4032c4:	24c651d0 	addiu	a2,a2,20944
  4032c8:	02b4a021 	addu	s4,s5,s4
  4032cc:	3c040047 	lui	a0,0x47
  4032d0:	8e850000 	lw	a1,0(s4)
  4032d4:	1000ffed 	b	40328c <_init+0x1ba0>
  4032d8:	2484543c 	addiu	a0,a0,21564
  4032dc:	27bdfef8 	addiu	sp,sp,-264
  4032e0:	3c020047 	lui	v0,0x47
  4032e4:	f7b80100 	sdc1	$f24,256(sp)
  4032e8:	d4585670 	ldc1	$f24,22128(v0)
  4032ec:	3c020047 	lui	v0,0x47
  4032f0:	f7b600f8 	sdc1	$f22,248(sp)
  4032f4:	d4565678 	ldc1	$f22,22136(v0)
  4032f8:	3c020047 	lui	v0,0x47
  4032fc:	f7b400f0 	sdc1	$f20,240(sp)
  403300:	d4545680 	ldc1	$f20,22144(v0)
  403304:	afb600e4 	sw	s6,228(sp)
  403308:	afb000cc 	sw	s0,204(sp)
  40330c:	3c16004b 	lui	s6,0x4b
  403310:	3c10004b 	lui	s0,0x4b
  403314:	afb500e0 	sw	s5,224(sp)
  403318:	afbf00ec 	sw	ra,236(sp)
  40331c:	afb700e8 	sw	s7,232(sp)
  403320:	afb400dc 	sw	s4,220(sp)
  403324:	afb300d8 	sw	s3,216(sp)
  403328:	afb200d4 	sw	s2,212(sp)
  40332c:	afb100d0 	sw	s1,208(sp)
  403330:	26d6f3a4 	addiu	s6,s6,-3164
  403334:	0000a821 	move	s5,zero
  403338:	2610f3a0 	addiu	s0,s0,-3168
  40333c:	8ec20000 	lw	v0,0(s6)
  403340:	14400018 	bnez	v0,4033a4 <_init+0x1cb8>
  403344:	00158880 	sll	s1,s5,0x2
  403348:	26b50001 	addiu	s5,s5,1
  40334c:	24020002 	li	v0,2
  403350:	16a2fffa 	bne	s5,v0,40333c <_init+0x1c50>
  403354:	26d60068 	addiu	s6,s6,104
  403358:	0c100c5f 	jal	40317c <_init+0x1a90>
  40335c:	00000000 	nop
  403360:	044000b2 	bltz	v0,40362c <_init+0x1f40>
  403364:	00001821 	move	v1,zero
  403368:	8fbf00ec 	lw	ra,236(sp)
  40336c:	8fb700e8 	lw	s7,232(sp)
  403370:	8fb600e4 	lw	s6,228(sp)
  403374:	8fb500e0 	lw	s5,224(sp)
  403378:	8fb400dc 	lw	s4,220(sp)
  40337c:	8fb300d8 	lw	s3,216(sp)
  403380:	8fb200d4 	lw	s2,212(sp)
  403384:	8fb100d0 	lw	s1,208(sp)
  403388:	8fb000cc 	lw	s0,204(sp)
  40338c:	d7b80100 	ldc1	$f24,256(sp)
  403390:	d7b600f8 	ldc1	$f22,248(sp)
  403394:	d7b400f0 	ldc1	$f20,240(sp)
  403398:	00601021 	move	v0,v1
  40339c:	03e00008 	jr	ra
  4033a0:	27bd0108 	addiu	sp,sp,264
  4033a4:	00159100 	sll	s2,s5,0x4
  4033a8:	0251a023 	subu	s4,s2,s1
  4033ac:	0295a021 	addu	s4,s4,s5
  4033b0:	0014a0c0 	sll	s4,s4,0x3
  4033b4:	8ec4fffc 	lw	a0,-4(s6)
  4033b8:	26970008 	addiu	s7,s4,8
  4033bc:	0217b821 	addu	s7,s0,s7
  4033c0:	0c10993e 	jal	4264f8 <_init+0x24e0c>
  4033c4:	02e02821 	move	a1,s7
  4033c8:	02009821 	move	s3,s0
  4033cc:	04400064 	bltz	v0,403560 <_init+0x1e74>
  4033d0:	02e02821 	move	a1,s7
  4033d4:	0c109703 	jal	425c0c <_init+0x24520>
  4033d8:	8ec4fffc 	lw	a0,-4(s6)
  4033dc:	04400070 	bltz	v0,4035a0 <_init+0x1eb4>
  4033e0:	3c060047 	lui	a2,0x47
  4033e4:	0c1021c3 	jal	40870c <_init+0x7020>
  4033e8:	8ec4fffc 	lw	a0,-4(s6)
  4033ec:	240600ac 	li	a2,172
  4033f0:	27a40018 	addiu	a0,sp,24
  4033f4:	04400076 	bltz	v0,4035d0 <_init+0x1ee4>
  4033f8:	00002821 	move	a1,zero
  4033fc:	0c1258ec 	jal	4963b0 <memset@plt>
  403400:	00000000 	nop
  403404:	8ee60000 	lw	a2,0(s7)
  403408:	8ee50004 	lw	a1,4(s7)
  40340c:	8ee4002c 	lw	a0,44(s7)
  403410:	8ee20030 	lw	v0,48(s7)
  403414:	70c54002 	mul	t0,a2,a1
  403418:	00041840 	sll	v1,a0,0x1
  40341c:	afa40048 	sw	a0,72(sp)
  403420:	24040003 	li	a0,3
  403424:	afa40054 	sw	a0,84(sp)
  403428:	2404002d 	li	a0,45
  40342c:	24070001 	li	a3,1
  403430:	afa2004c 	sw	v0,76(sp)
  403434:	afa40058 	sw	a0,88(sp)
  403438:	2404000f 	li	a0,15
  40343c:	afa70018 	sw	a3,24(sp)
  403440:	afa70020 	sw	a3,32(sp)
  403444:	afa60024 	sw	a2,36(sp)
  403448:	afa50028 	sw	a1,40(sp)
  40344c:	afa4005c 	sw	a0,92(sp)
  403450:	44881000 	mtc1	t0,$f2
  403454:	0062001b 	divu	zero,v1,v0
  403458:	004001f4 	teq	v0,zero,0x7
  40345c:	46801021 	cvt.d.w	$f0,$f2
  403460:	46380002 	mul.d	$f0,$f0,$f24
  403464:	24030002 	li	v1,2
  403468:	afa30060 	sw	v1,96(sp)
  40346c:	46360003 	div.d	$f0,$f0,$f22
  403470:	00001012 	mflo	v0
  403474:	4620a03e 	c.le.d	$f20,$f0
  403478:	45010033 	bc1t	403548 <_init+0x1e5c>
  40347c:	afa20050 	sw	v0,80(sp)
  403480:	4620008d 	trunc.w.d	$f2,$f0
  403484:	44031000 	mfc1	v1,$f2
  403488:	afa30064 	sw	v1,100(sp)
  40348c:	24030050 	li	v1,80
  403490:	2442ffff 	addiu	v0,v0,-1
  403494:	afa3006c 	sw	v1,108(sp)
  403498:	8ec4fffc 	lw	a0,-4(s6)
  40349c:	24030002 	li	v1,2
  4034a0:	afa30070 	sw	v1,112(sp)
  4034a4:	afa200ac 	sw	v0,172(sp)
  4034a8:	24030003 	li	v1,3
  4034ac:	24020001 	li	v0,1
  4034b0:	afa30074 	sw	v1,116(sp)
  4034b4:	afa200b0 	sw	v0,176(sp)
  4034b8:	2403000f 	li	v1,15
  4034bc:	24020006 	li	v0,6
  4034c0:	27a50018 	addiu	a1,sp,24
  4034c4:	afa30078 	sw	v1,120(sp)
  4034c8:	0c102368 	jal	408da0 <_init+0x76b4>
  4034cc:	afa200b4 	sw	v0,180(sp)
  4034d0:	0440004b 	bltz	v0,403600 <_init+0x1f14>
  4034d4:	3c060047 	lui	a2,0x47
  4034d8:	8ec4fffc 	lw	a0,-4(s6)
  4034dc:	0c102af4 	jal	40abd0 <_init+0x94e4>
  4034e0:	00802821 	move	a1,a0
  4034e4:	0441ff98 	bgez	v0,403348 <_init+0x1c5c>
  4034e8:	0040a021 	move	s4,v0
  4034ec:	3c040047 	lui	a0,0x47
  4034f0:	3c050047 	lui	a1,0x47
  4034f4:	3c060047 	lui	a2,0x47
  4034f8:	24844cf0 	addiu	a0,a0,19696
  4034fc:	24a555c0 	addiu	a1,a1,21952
  403500:	24c651d0 	addiu	a2,a2,20944
  403504:	0c12580c 	jal	496030 <printf@plt>
  403508:	2407013b 	li	a3,315
  40350c:	02511023 	subu	v0,s2,s1
  403510:	00551021 	addu	v0,v0,s5
  403514:	000210c0 	sll	v0,v0,0x3
  403518:	02629821 	addu	s3,s3,v0
  40351c:	8e650000 	lw	a1,0(s3)
  403520:	3c040047 	lui	a0,0x47
  403524:	24845534 	addiu	a0,a0,21812
  403528:	00a03021 	move	a2,a1
  40352c:	0c12580c 	jal	496030 <printf@plt>
  403530:	02803821 	move	a3,s4
  403534:	3c040047 	lui	a0,0x47
  403538:	0c12580c 	jal	496030 <printf@plt>
  40353c:	24844d20 	addiu	a0,a0,19744
  403540:	1000ff89 	b	403368 <_init+0x1c7c>
  403544:	2403ffff 	li	v1,-1
  403548:	46340001 	sub.d	$f0,$f0,$f20
  40354c:	3c048000 	lui	a0,0x8000
  403550:	4620008d 	trunc.w.d	$f2,$f0
  403554:	44031000 	mfc1	v1,$f2
  403558:	1000ffcb 	b	403488 <_init+0x1d9c>
  40355c:	00641825 	or	v1,v1,a0
  403560:	3c060047 	lui	a2,0x47
  403564:	3c040047 	lui	a0,0x47
  403568:	3c050047 	lui	a1,0x47
  40356c:	24844cf0 	addiu	a0,a0,19696
  403570:	24a555c0 	addiu	a1,a1,21952
  403574:	24c651d0 	addiu	a2,a2,20944
  403578:	240700ca 	li	a3,202
  40357c:	0c12580c 	jal	496030 <printf@plt>
  403580:	02908021 	addu	s0,s4,s0
  403584:	8e050000 	lw	a1,0(s0)
  403588:	3c040047 	lui	a0,0x47
  40358c:	24845490 	addiu	a0,a0,21648
  403590:	0c12580c 	jal	496030 <printf@plt>
  403594:	00000000 	nop
  403598:	1000ffe7 	b	403538 <_init+0x1e4c>
  40359c:	3c040047 	lui	a0,0x47
  4035a0:	3c040047 	lui	a0,0x47
  4035a4:	3c050047 	lui	a1,0x47
  4035a8:	24844cf0 	addiu	a0,a0,19696
  4035ac:	24a555c0 	addiu	a1,a1,21952
  4035b0:	24c651d0 	addiu	a2,a2,20944
  4035b4:	0c12580c 	jal	496030 <printf@plt>
  4035b8:	240700d0 	li	a3,208
  4035bc:	02908021 	addu	s0,s4,s0
  4035c0:	3c040047 	lui	a0,0x47
  4035c4:	8e050000 	lw	a1,0(s0)
  4035c8:	1000fff1 	b	403590 <_init+0x1ea4>
  4035cc:	248454bc 	addiu	a0,a0,21692
  4035d0:	3c060047 	lui	a2,0x47
  4035d4:	3c040047 	lui	a0,0x47
  4035d8:	3c050047 	lui	a1,0x47
  4035dc:	24844cf0 	addiu	a0,a0,19696
  4035e0:	24a555c0 	addiu	a1,a1,21952
  4035e4:	24c651d0 	addiu	a2,a2,20944
  4035e8:	0c12580c 	jal	496030 <printf@plt>
  4035ec:	240700d7 	li	a3,215
  4035f0:	3c040047 	lui	a0,0x47
  4035f4:	248454e8 	addiu	a0,a0,21736
  4035f8:	1000ffe5 	b	403590 <_init+0x1ea4>
  4035fc:	02a02821 	move	a1,s5
  403600:	3c040047 	lui	a0,0x47
  403604:	3c050047 	lui	a1,0x47
  403608:	24844cf0 	addiu	a0,a0,19696
  40360c:	24a555c0 	addiu	a1,a1,21952
  403610:	24c651d0 	addiu	a2,a2,20944
  403614:	0c12580c 	jal	496030 <printf@plt>
  403618:	24070134 	li	a3,308
  40361c:	3c040047 	lui	a0,0x47
  403620:	24845510 	addiu	a0,a0,21776
  403624:	1000ffda 	b	403590 <_init+0x1ea4>
  403628:	02a02821 	move	a1,s5
  40362c:	3c050047 	lui	a1,0x47
  403630:	3c060047 	lui	a2,0x47
  403634:	3c040047 	lui	a0,0x47
  403638:	24a555c0 	addiu	a1,a1,21952
  40363c:	24c651d0 	addiu	a2,a2,20944
  403640:	24070147 	li	a3,327
  403644:	0c12580c 	jal	496030 <printf@plt>
  403648:	24844cf0 	addiu	a0,a0,19696
  40364c:	3c040047 	lui	a0,0x47
  403650:	0c12589c 	jal	496270 <puts@plt>
  403654:	24844e14 	addiu	a0,a0,19988
  403658:	3c040047 	lui	a0,0x47
  40365c:	0c12580c 	jal	496030 <printf@plt>
  403660:	24844d20 	addiu	a0,a0,19744
  403664:	1000ff40 	b	403368 <_init+0x1c7c>
  403668:	2403ffff 	li	v1,-1
  40366c:	27bdff78 	addiu	sp,sp,-136
  403670:	2c820002 	sltiu	v0,a0,2
  403674:	afbf0084 	sw	ra,132(sp)
  403678:	afb60080 	sw	s6,128(sp)
  40367c:	afb5007c 	sw	s5,124(sp)
  403680:	afb40078 	sw	s4,120(sp)
  403684:	afb30074 	sw	s3,116(sp)
  403688:	afb20070 	sw	s2,112(sp)
  40368c:	afb1006c 	sw	s1,108(sp)
  403690:	104000ab 	beqz	v0,403940 <_init+0x2254>
  403694:	afb00068 	sw	s0,104(sp)
  403698:	00808021 	move	s0,a0
  40369c:	00041880 	sll	v1,a0,0x2
  4036a0:	00042100 	sll	a0,a0,0x4
  4036a4:	00831823 	subu	v1,a0,v1
  4036a8:	00701821 	addu	v1,v1,s0
  4036ac:	3c02004b 	lui	v0,0x4b
  4036b0:	000318c0 	sll	v1,v1,0x3
  4036b4:	2442f3a0 	addiu	v0,v0,-3168
  4036b8:	00431021 	addu	v0,v0,v1
  4036bc:	8c420004 	lw	v0,4(v0)
  4036c0:	104000ac 	beqz	v0,403974 <_init+0x2288>
  4036c4:	26110002 	addiu	s1,s0,2
  4036c8:	0c102b8a 	jal	40ae28 <_init+0x973c>
  4036cc:	02202021 	move	a0,s1
  4036d0:	04400045 	bltz	v0,4037e8 <_init+0x20fc>
  4036d4:	3c060047 	lui	a2,0x47
  4036d8:	3c050047 	lui	a1,0x47
  4036dc:	27a40018 	addiu	a0,sp,24
  4036e0:	24a55578 	addiu	a1,a1,21880
  4036e4:	24c6533c 	addiu	a2,a2,21308
  4036e8:	02003821 	move	a3,s0
  4036ec:	3c160047 	lui	s6,0x47
  4036f0:	3c130047 	lui	s3,0x47
  4036f4:	0c125950 	jal	496540 <sprintf@plt>
  4036f8:	3c120047 	lui	s2,0x47
  4036fc:	264651d0 	addiu	a2,s2,20944
  403700:	24070294 	li	a3,660
  403704:	26c44cf0 	addiu	a0,s6,19696
  403708:	0c12580c 	jal	496030 <printf@plt>
  40370c:	2665565c 	addiu	a1,s3,22108
  403710:	3c040047 	lui	a0,0x47
  403714:	27a50018 	addiu	a1,sp,24
  403718:	24845588 	addiu	a0,a0,21896
  40371c:	0c12580c 	jal	496030 <printf@plt>
  403720:	3c150047 	lui	s5,0x47
  403724:	0c12580c 	jal	496030 <printf@plt>
  403728:	26a44d20 	addiu	a0,s5,19744
  40372c:	27a40018 	addiu	a0,sp,24
  403730:	24050302 	li	a1,770
  403734:	0c1258b0 	jal	4962c0 <open@plt>
  403738:	240601ff 	li	a2,511
  40373c:	04400045 	bltz	v0,403854 <_init+0x2168>
  403740:	0040a021 	move	s4,v0
  403744:	3c040047 	lui	a0,0x47
  403748:	2665565c 	addiu	a1,s3,22108
  40374c:	264651d0 	addiu	a2,s2,20944
  403750:	2407029a 	li	a3,666
  403754:	0c12580c 	jal	496030 <printf@plt>
  403758:	24844cb4 	addiu	a0,a0,19636
  40375c:	3c040047 	lui	a0,0x47
  403760:	0c12589c 	jal	496270 <puts@plt>
  403764:	24845368 	addiu	a0,a0,21352
  403768:	02202021 	move	a0,s1
  40376c:	0c102cde 	jal	40b378 <_init+0x9c8c>
  403770:	240503e8 	li	a1,1000
  403774:	04400055 	bltz	v0,4038cc <_init+0x21e0>
  403778:	27a50058 	addiu	a1,sp,88
  40377c:	02202021 	move	a0,s1
  403780:	0c102bf3 	jal	40afcc <_init+0x98e0>
  403784:	24060001 	li	a2,1
  403788:	04400066 	bltz	v0,403924 <_init+0x2238>
  40378c:	26c44cf0 	addiu	a0,s6,19696
  403790:	02802021 	move	a0,s4
  403794:	0c100a00 	jal	402800 <_init+0x1114>
  403798:	27a50058 	addiu	a1,sp,88
  40379c:	04400047 	bltz	v0,4038bc <_init+0x21d0>
  4037a0:	00408021 	move	s0,v0
  4037a4:	27a50058 	addiu	a1,sp,88
  4037a8:	0c102c62 	jal	40b188 <_init+0x9a9c>
  4037ac:	02202021 	move	a0,s1
  4037b0:	0c125970 	jal	4965c0 <close@plt>
  4037b4:	02802021 	move	a0,s4
  4037b8:	0c102d39 	jal	40b4e4 <_init+0x9df8>
  4037bc:	02202021 	move	a0,s1
  4037c0:	04410019 	bgez	v0,403828 <_init+0x213c>
  4037c4:	00008021 	move	s0,zero
  4037c8:	26c44cf0 	addiu	a0,s6,19696
  4037cc:	2665565c 	addiu	a1,s3,22108
  4037d0:	264651d0 	addiu	a2,s2,20944
  4037d4:	0c12580c 	jal	496030 <printf@plt>
  4037d8:	240702b7 	li	a3,695
  4037dc:	3c040047 	lui	a0,0x47
  4037e0:	10000041 	b	4038e8 <_init+0x21fc>
  4037e4:	248453a4 	addiu	a0,a0,21412
  4037e8:	3c060047 	lui	a2,0x47
  4037ec:	3c040047 	lui	a0,0x47
  4037f0:	3c050047 	lui	a1,0x47
  4037f4:	24844cf0 	addiu	a0,a0,19696
  4037f8:	24a5565c 	addiu	a1,a1,22108
  4037fc:	24c651d0 	addiu	a2,a2,20944
  403800:	0c12580c 	jal	496030 <printf@plt>
  403804:	2407028e 	li	a3,654
  403808:	3c040047 	lui	a0,0x47
  40380c:	24845300 	addiu	a0,a0,21248
  403810:	0c12580c 	jal	496030 <printf@plt>
  403814:	02202821 	move	a1,s1
  403818:	3c040047 	lui	a0,0x47
  40381c:	24844d20 	addiu	a0,a0,19744
  403820:	0c12580c 	jal	496030 <printf@plt>
  403824:	2410ffff 	li	s0,-1
  403828:	8fbf0084 	lw	ra,132(sp)
  40382c:	02001021 	move	v0,s0
  403830:	8fb60080 	lw	s6,128(sp)
  403834:	8fb5007c 	lw	s5,124(sp)
  403838:	8fb40078 	lw	s4,120(sp)
  40383c:	8fb30074 	lw	s3,116(sp)
  403840:	8fb20070 	lw	s2,112(sp)
  403844:	8fb1006c 	lw	s1,108(sp)
  403848:	8fb00068 	lw	s0,104(sp)
  40384c:	03e00008 	jr	ra
  403850:	27bd0088 	addiu	sp,sp,136
  403854:	264651d0 	addiu	a2,s2,20944
  403858:	24070297 	li	a3,663
  40385c:	2665565c 	addiu	a1,s3,22108
  403860:	0c12580c 	jal	496030 <printf@plt>
  403864:	26c44cf0 	addiu	a0,s6,19696
  403868:	0c1258fc 	jal	4963f0 <__errno_location@plt>
  40386c:	2410ffff 	li	s0,-1
  403870:	0c1258a0 	jal	496280 <strerror@plt>
  403874:	8c440000 	lw	a0,0(v0)
  403878:	3c040047 	lui	a0,0x47
  40387c:	00402821 	move	a1,v0
  403880:	0c12580c 	jal	496030 <printf@plt>
  403884:	2484535c 	addiu	a0,a0,21340
  403888:	0c12580c 	jal	496030 <printf@plt>
  40388c:	26a44d20 	addiu	a0,s5,19744
  403890:	8fbf0084 	lw	ra,132(sp)
  403894:	02001021 	move	v0,s0
  403898:	8fb60080 	lw	s6,128(sp)
  40389c:	8fb5007c 	lw	s5,124(sp)
  4038a0:	8fb40078 	lw	s4,120(sp)
  4038a4:	8fb30074 	lw	s3,116(sp)
  4038a8:	8fb20070 	lw	s2,112(sp)
  4038ac:	8fb1006c 	lw	s1,108(sp)
  4038b0:	8fb00068 	lw	s0,104(sp)
  4038b4:	03e00008 	jr	ra
  4038b8:	27bd0088 	addiu	sp,sp,136
  4038bc:	0c125970 	jal	4965c0 <close@plt>
  4038c0:	02802021 	move	a0,s4
  4038c4:	1000ffd9 	b	40382c <_init+0x2140>
  4038c8:	8fbf0084 	lw	ra,132(sp)
  4038cc:	26c44cf0 	addiu	a0,s6,19696
  4038d0:	2665565c 	addiu	a1,s3,22108
  4038d4:	264651d0 	addiu	a2,s2,20944
  4038d8:	0c12580c 	jal	496030 <printf@plt>
  4038dc:	2407029f 	li	a3,671
  4038e0:	3c040047 	lui	a0,0x47
  4038e4:	2484536c 	addiu	a0,a0,21356
  4038e8:	0c12589c 	jal	496270 <puts@plt>
  4038ec:	2410ffff 	li	s0,-1
  4038f0:	0c12580c 	jal	496030 <printf@plt>
  4038f4:	26a44d20 	addiu	a0,s5,19744
  4038f8:	8fbf0084 	lw	ra,132(sp)
  4038fc:	02001021 	move	v0,s0
  403900:	8fb60080 	lw	s6,128(sp)
  403904:	8fb5007c 	lw	s5,124(sp)
  403908:	8fb40078 	lw	s4,120(sp)
  40390c:	8fb30074 	lw	s3,116(sp)
  403910:	8fb20070 	lw	s2,112(sp)
  403914:	8fb1006c 	lw	s1,108(sp)
  403918:	8fb00068 	lw	s0,104(sp)
  40391c:	03e00008 	jr	ra
  403920:	27bd0088 	addiu	sp,sp,136
  403924:	2665565c 	addiu	a1,s3,22108
  403928:	264651d0 	addiu	a2,s2,20944
  40392c:	0c12580c 	jal	496030 <printf@plt>
  403930:	240702a7 	li	a3,679
  403934:	3c040047 	lui	a0,0x47
  403938:	1000ffeb 	b	4038e8 <_init+0x21fc>
  40393c:	24845384 	addiu	a0,a0,21380
  403940:	3c050047 	lui	a1,0x47
  403944:	3c060047 	lui	a2,0x47
  403948:	3c040047 	lui	a0,0x47
  40394c:	24a5565c 	addiu	a1,a1,22108
  403950:	24c651d0 	addiu	a2,a2,20944
  403954:	24070286 	li	a3,646
  403958:	0c12580c 	jal	496030 <printf@plt>
  40395c:	24844cf0 	addiu	a0,a0,19696
  403960:	3c040047 	lui	a0,0x47
  403964:	0c12589c 	jal	496270 <puts@plt>
  403968:	24845560 	addiu	a0,a0,21856
  40396c:	1000ffab 	b	40381c <_init+0x2130>
  403970:	3c040047 	lui	a0,0x47
  403974:	3c060047 	lui	a2,0x47
  403978:	3c040047 	lui	a0,0x47
  40397c:	3c050047 	lui	a1,0x47
  403980:	24c651d0 	addiu	a2,a2,20944
  403984:	240702bc 	li	a3,700
  403988:	24844cf0 	addiu	a0,a0,19696
  40398c:	0c12580c 	jal	496030 <printf@plt>
  403990:	24a5565c 	addiu	a1,a1,22108
  403994:	3c040047 	lui	a0,0x47
  403998:	02002821 	move	a1,s0
  40399c:	0c12580c 	jal	496030 <printf@plt>
  4039a0:	2484559c 	addiu	a0,a0,21916
  4039a4:	3c040047 	lui	a0,0x47
  4039a8:	24844d20 	addiu	a0,a0,19744
  4039ac:	0c12580c 	jal	496030 <printf@plt>
  4039b0:	2410ffff 	li	s0,-1
  4039b4:	1000ff9d 	b	40382c <_init+0x2140>
  4039b8:	8fbf0084 	lw	ra,132(sp)
  4039bc:	00000000 	nop
  4039c0:	27bdffb8 	addiu	sp,sp,-72
  4039c4:	afbf0044 	sw	ra,68(sp)
  4039c8:	0c11ca4c 	jal	472930 <_init+0x71244>
  4039cc:	00000000 	nop
  4039d0:	00402821 	move	a1,v0
  4039d4:	3c020047 	lui	v0,0x47
  4039d8:	24425690 	addiu	v0,v0,22160
  4039dc:	afa20010 	sw	v0,16(sp)
  4039e0:	24020019 	li	v0,25
  4039e4:	afa20014 	sw	v0,20(sp)
  4039e8:	3c020047 	lui	v0,0x47
  4039ec:	244256dc 	addiu	v0,v0,22236
  4039f0:	afa2001c 	sw	v0,28(sp)
  4039f4:	3c020047 	lui	v0,0x47
  4039f8:	24425700 	addiu	v0,v0,22272
  4039fc:	afa20024 	sw	v0,36(sp)
  403a00:	3c020047 	lui	v0,0x47
  403a04:	24425708 	addiu	v0,v0,22280
  403a08:	afa20028 	sw	v0,40(sp)
  403a0c:	3c020047 	lui	v0,0x47
  403a10:	24425710 	addiu	v0,v0,22288
  403a14:	afa2002c 	sw	v0,44(sp)
  403a18:	3c030047 	lui	v1,0x47
  403a1c:	3c020047 	lui	v0,0x47
  403a20:	246357b0 	addiu	v1,v1,22448
  403a24:	2442571c 	addiu	v0,v0,22300
  403a28:	3c070047 	lui	a3,0x47
  403a2c:	afa30018 	sw	v1,24(sp)
  403a30:	afa30020 	sw	v1,32(sp)
  403a34:	24040003 	li	a0,3
  403a38:	24060002 	li	a2,2
  403a3c:	24e75688 	addiu	a3,a3,22152
  403a40:	0c11cb29 	jal	472ca4 <_init+0x715b8>
  403a44:	afa20030 	sw	v0,48(sp)
  403a48:	0c1014e9 	jal	4053a4 <_init+0x3cb8>
  403a4c:	00000000 	nop
  403a50:	8fbf0044 	lw	ra,68(sp)
  403a54:	03e00008 	jr	ra
  403a58:	27bd0048 	addiu	sp,sp,72
  403a5c:	27bdffc8 	addiu	sp,sp,-56
  403a60:	afbf0034 	sw	ra,52(sp)
  403a64:	0c11ca4c 	jal	472930 <_init+0x71244>
  403a68:	00000000 	nop
  403a6c:	00402821 	move	a1,v0
  403a70:	3c020047 	lui	v0,0x47
  403a74:	24425690 	addiu	v0,v0,22160
  403a78:	afa20010 	sw	v0,16(sp)
  403a7c:	2402001f 	li	v0,31
  403a80:	afa20014 	sw	v0,20(sp)
  403a84:	3c030047 	lui	v1,0x47
  403a88:	3c020049 	lui	v0,0x49
  403a8c:	246357c0 	addiu	v1,v1,22464
  403a90:	2442cbd4 	addiu	v0,v0,-13356
  403a94:	3c070047 	lui	a3,0x47
  403a98:	afa30018 	sw	v1,24(sp)
  403a9c:	afa30020 	sw	v1,32(sp)
  403aa0:	24040003 	li	a0,3
  403aa4:	24060002 	li	a2,2
  403aa8:	24e75688 	addiu	a3,a3,22152
  403aac:	0c11cb29 	jal	472ca4 <_init+0x715b8>
  403ab0:	afa2001c 	sw	v0,28(sp)
  403ab4:	0c101490 	jal	405240 <_init+0x3b54>
  403ab8:	00000000 	nop
  403abc:	8fbf0034 	lw	ra,52(sp)
  403ac0:	03e00008 	jr	ra
  403ac4:	27bd0038 	addiu	sp,sp,56
  403ac8:	27bdffe0 	addiu	sp,sp,-32
  403acc:	afbf001c 	sw	ra,28(sp)
  403ad0:	0c101119 	jal	404464 <_init+0x2d78>
  403ad4:	00002021 	move	a0,zero
  403ad8:	8fbf001c 	lw	ra,28(sp)
  403adc:	03e00008 	jr	ra
  403ae0:	27bd0020 	addiu	sp,sp,32
  403ae4:	27bdffe0 	addiu	sp,sp,-32
  403ae8:	afbf001c 	sw	ra,28(sp)
  403aec:	0c1011a2 	jal	404688 <_init+0x2f9c>
  403af0:	00000000 	nop
  403af4:	8fbf001c 	lw	ra,28(sp)
  403af8:	03e00008 	jr	ra
  403afc:	27bd0020 	addiu	sp,sp,32
  403b00:	27bdffc8 	addiu	sp,sp,-56
  403b04:	afbf0034 	sw	ra,52(sp)
  403b08:	0c101423 	jal	40508c <_init+0x39a0>
  403b0c:	27a50028 	addiu	a1,sp,40
  403b10:	04400004 	bltz	v0,403b24 <_init+0x2438>
  403b14:	8fbf0034 	lw	ra,52(sp)
  403b18:	8fa20028 	lw	v0,40(sp)
  403b1c:	03e00008 	jr	ra
  403b20:	27bd0038 	addiu	sp,sp,56
  403b24:	0c11ca4c 	jal	472930 <_init+0x71244>
  403b28:	afa00028 	sw	zero,40(sp)
  403b2c:	3c030047 	lui	v1,0x47
  403b30:	24635690 	addiu	v1,v1,22160
  403b34:	afa30010 	sw	v1,16(sp)
  403b38:	24030034 	li	v1,52
  403b3c:	afa30014 	sw	v1,20(sp)
  403b40:	3c030047 	lui	v1,0x47
  403b44:	246357d0 	addiu	v1,v1,22480
  403b48:	afa30018 	sw	v1,24(sp)
  403b4c:	3c030047 	lui	v1,0x47
  403b50:	24635728 	addiu	v1,v1,22312
  403b54:	3c070047 	lui	a3,0x47
  403b58:	afa3001c 	sw	v1,28(sp)
  403b5c:	00402821 	move	a1,v0
  403b60:	24040006 	li	a0,6
  403b64:	24060002 	li	a2,2
  403b68:	0c11cb29 	jal	472ca4 <_init+0x715b8>
  403b6c:	24e75688 	addiu	a3,a3,22152
  403b70:	8fbf0034 	lw	ra,52(sp)
  403b74:	8fa20028 	lw	v0,40(sp)
  403b78:	03e00008 	jr	ra
  403b7c:	27bd0038 	addiu	sp,sp,56
  403b80:	27bdffd0 	addiu	sp,sp,-48
  403b84:	afbf002c 	sw	ra,44(sp)
  403b88:	0c101425 	jal	405094 <_init+0x39a8>
  403b8c:	00000000 	nop
  403b90:	04400003 	bltz	v0,403ba0 <_init+0x24b4>
  403b94:	8fbf002c 	lw	ra,44(sp)
  403b98:	03e00008 	jr	ra
  403b9c:	27bd0030 	addiu	sp,sp,48
  403ba0:	0c11ca4c 	jal	472930 <_init+0x71244>
  403ba4:	00000000 	nop
  403ba8:	3c030047 	lui	v1,0x47
  403bac:	24635690 	addiu	v1,v1,22160
  403bb0:	afa30010 	sw	v1,16(sp)
  403bb4:	2403003f 	li	v1,63
  403bb8:	afa30014 	sw	v1,20(sp)
  403bbc:	3c030047 	lui	v1,0x47
  403bc0:	246357e8 	addiu	v1,v1,22504
  403bc4:	afa30018 	sw	v1,24(sp)
  403bc8:	3c030047 	lui	v1,0x47
  403bcc:	24635728 	addiu	v1,v1,22312
  403bd0:	3c070047 	lui	a3,0x47
  403bd4:	afa3001c 	sw	v1,28(sp)
  403bd8:	24040006 	li	a0,6
  403bdc:	00402821 	move	a1,v0
  403be0:	24060002 	li	a2,2
  403be4:	0c11cb29 	jal	472ca4 <_init+0x715b8>
  403be8:	24e75688 	addiu	a3,a3,22152
  403bec:	8fbf002c 	lw	ra,44(sp)
  403bf0:	03e00008 	jr	ra
  403bf4:	27bd0030 	addiu	sp,sp,48
  403bf8:	1080000b 	beqz	a0,403c28 <_init+0x253c>
  403bfc:	3c050047 	lui	a1,0x47
  403c00:	3c060047 	lui	a2,0x47
  403c04:	27bdffe0 	addiu	sp,sp,-32
  403c08:	24a55738 	addiu	a1,a1,22328
  403c0c:	afbf001c 	sw	ra,28(sp)
  403c10:	0c125950 	jal	496540 <sprintf@plt>
  403c14:	24c65700 	addiu	a2,a2,22272
  403c18:	8fbf001c 	lw	ra,28(sp)
  403c1c:	00001021 	move	v0,zero
  403c20:	03e00008 	jr	ra
  403c24:	27bd0020 	addiu	sp,sp,32
  403c28:	03e00008 	jr	ra
  403c2c:	2402ffff 	li	v0,-1
  403c30:	27bdffc8 	addiu	sp,sp,-56
  403c34:	1080001e 	beqz	a0,403cb0 <_init+0x25c4>
  403c38:	afbf0034 	sw	ra,52(sp)
  403c3c:	10a00006 	beqz	a1,403c58 <_init+0x256c>
  403c40:	00000000 	nop
  403c44:	0c1011cc 	jal	404730 <_init+0x3044>
  403c48:	00000000 	nop
  403c4c:	8fbf0034 	lw	ra,52(sp)
  403c50:	03e00008 	jr	ra
  403c54:	27bd0038 	addiu	sp,sp,56
  403c58:	0c11ca4c 	jal	472930 <_init+0x71244>
  403c5c:	00000000 	nop
  403c60:	3c040047 	lui	a0,0x47
  403c64:	24845690 	addiu	a0,a0,22160
  403c68:	3c030047 	lui	v1,0x47
  403c6c:	afa40010 	sw	a0,16(sp)
  403c70:	24040052 	li	a0,82
  403c74:	24635800 	addiu	v1,v1,22528
  403c78:	afa40014 	sw	a0,20(sp)
  403c7c:	3c040047 	lui	a0,0x47
  403c80:	afa30018 	sw	v1,24(sp)
  403c84:	2484575c 	addiu	a0,a0,22364
  403c88:	3c070047 	lui	a3,0x47
  403c8c:	afa4001c 	sw	a0,28(sp)
  403c90:	00402821 	move	a1,v0
  403c94:	afa30020 	sw	v1,32(sp)
  403c98:	24040006 	li	a0,6
  403c9c:	24060002 	li	a2,2
  403ca0:	0c11cb29 	jal	472ca4 <_init+0x715b8>
  403ca4:	24e75688 	addiu	a3,a3,22152
  403ca8:	1000ffe8 	b	403c4c <_init+0x2560>
  403cac:	2402ffff 	li	v0,-1
  403cb0:	0c11ca4c 	jal	472930 <_init+0x71244>
  403cb4:	00000000 	nop
  403cb8:	3c040047 	lui	a0,0x47
  403cbc:	24845690 	addiu	a0,a0,22160
  403cc0:	3c030047 	lui	v1,0x47
  403cc4:	afa40010 	sw	a0,16(sp)
  403cc8:	2404004e 	li	a0,78
  403ccc:	24635800 	addiu	v1,v1,22528
  403cd0:	afa40014 	sw	a0,20(sp)
  403cd4:	3c040047 	lui	a0,0x47
  403cd8:	afa30018 	sw	v1,24(sp)
  403cdc:	1000ffea 	b	403c88 <_init+0x259c>
  403ce0:	24845740 	addiu	a0,a0,22336
  403ce4:	27bdffc8 	addiu	sp,sp,-56
  403ce8:	1080001e 	beqz	a0,403d64 <_init+0x2678>
  403cec:	afbf0034 	sw	ra,52(sp)
  403cf0:	10a00006 	beqz	a1,403d0c <_init+0x2620>
  403cf4:	00000000 	nop
  403cf8:	0c10125c 	jal	404970 <_init+0x3284>
  403cfc:	00000000 	nop
  403d00:	8fbf0034 	lw	ra,52(sp)
  403d04:	03e00008 	jr	ra
  403d08:	27bd0038 	addiu	sp,sp,56
  403d0c:	0c11ca4c 	jal	472930 <_init+0x71244>
  403d10:	00000000 	nop
  403d14:	3c040047 	lui	a0,0x47
  403d18:	24845690 	addiu	a0,a0,22160
  403d1c:	3c030047 	lui	v1,0x47
  403d20:	afa40010 	sw	a0,16(sp)
  403d24:	24040060 	li	a0,96
  403d28:	24635810 	addiu	v1,v1,22544
  403d2c:	afa40014 	sw	a0,20(sp)
  403d30:	3c040047 	lui	a0,0x47
  403d34:	afa30018 	sw	v1,24(sp)
  403d38:	2484575c 	addiu	a0,a0,22364
  403d3c:	3c070047 	lui	a3,0x47
  403d40:	afa4001c 	sw	a0,28(sp)
  403d44:	00402821 	move	a1,v0
  403d48:	afa30020 	sw	v1,32(sp)
  403d4c:	24040006 	li	a0,6
  403d50:	24060002 	li	a2,2
  403d54:	0c11cb29 	jal	472ca4 <_init+0x715b8>
  403d58:	24e75688 	addiu	a3,a3,22152
  403d5c:	1000ffe8 	b	403d00 <_init+0x2614>
  403d60:	2402ffff 	li	v0,-1
  403d64:	0c11ca4c 	jal	472930 <_init+0x71244>
  403d68:	00000000 	nop
  403d6c:	3c040047 	lui	a0,0x47
  403d70:	24845690 	addiu	a0,a0,22160
  403d74:	3c030047 	lui	v1,0x47
  403d78:	afa40010 	sw	a0,16(sp)
  403d7c:	2404005c 	li	a0,92
  403d80:	24635810 	addiu	v1,v1,22544
  403d84:	afa40014 	sw	a0,20(sp)
  403d88:	3c040047 	lui	a0,0x47
  403d8c:	afa30018 	sw	v1,24(sp)
  403d90:	1000ffea 	b	403d3c <_init+0x2650>
  403d94:	24845740 	addiu	a0,a0,22336
  403d98:	27bdffc8 	addiu	sp,sp,-56
  403d9c:	1080001e 	beqz	a0,403e18 <_init+0x272c>
  403da0:	afbf0034 	sw	ra,52(sp)
  403da4:	10a00006 	beqz	a1,403dc0 <_init+0x26d4>
  403da8:	00000000 	nop
  403dac:	0c1012c8 	jal	404b20 <_init+0x3434>
  403db0:	00000000 	nop
  403db4:	8fbf0034 	lw	ra,52(sp)
  403db8:	03e00008 	jr	ra
  403dbc:	27bd0038 	addiu	sp,sp,56
  403dc0:	0c11ca4c 	jal	472930 <_init+0x71244>
  403dc4:	00000000 	nop
  403dc8:	3c040047 	lui	a0,0x47
  403dcc:	24845690 	addiu	a0,a0,22160
  403dd0:	3c030047 	lui	v1,0x47
  403dd4:	afa40010 	sw	a0,16(sp)
  403dd8:	2404006f 	li	a0,111
  403ddc:	24635824 	addiu	v1,v1,22564
  403de0:	afa40014 	sw	a0,20(sp)
  403de4:	3c040047 	lui	a0,0x47
  403de8:	afa30018 	sw	v1,24(sp)
  403dec:	24845740 	addiu	a0,a0,22336
  403df0:	3c070047 	lui	a3,0x47
  403df4:	afa4001c 	sw	a0,28(sp)
  403df8:	00402821 	move	a1,v0
  403dfc:	afa30020 	sw	v1,32(sp)
  403e00:	24040006 	li	a0,6
  403e04:	24060002 	li	a2,2
  403e08:	0c11cb29 	jal	472ca4 <_init+0x715b8>
  403e0c:	24e75688 	addiu	a3,a3,22152
  403e10:	1000ffe8 	b	403db4 <_init+0x26c8>
  403e14:	2402ffff 	li	v0,-1
  403e18:	0c11ca4c 	jal	472930 <_init+0x71244>
  403e1c:	00000000 	nop
  403e20:	3c040047 	lui	a0,0x47
  403e24:	24845690 	addiu	a0,a0,22160
  403e28:	3c030047 	lui	v1,0x47
  403e2c:	afa40010 	sw	a0,16(sp)
  403e30:	2404006a 	li	a0,106
  403e34:	24635824 	addiu	v1,v1,22564
  403e38:	afa40014 	sw	a0,20(sp)
  403e3c:	3c040047 	lui	a0,0x47
  403e40:	afa30018 	sw	v1,24(sp)
  403e44:	1000ffea 	b	403df0 <_init+0x2704>
  403e48:	2484575c 	addiu	a0,a0,22364
  403e4c:	27bdffe0 	addiu	sp,sp,-32
  403e50:	afbf001c 	sw	ra,28(sp)
  403e54:	0c101430 	jal	4050c0 <_init+0x39d4>
  403e58:	00000000 	nop
  403e5c:	1040000f 	beqz	v0,403e9c <_init+0x27b0>
  403e60:	2443ffff 	addiu	v1,v0,-1
  403e64:	2c630002 	sltiu	v1,v1,2
  403e68:	14600011 	bnez	v1,403eb0 <_init+0x27c4>
  403e6c:	24030003 	li	v1,3
  403e70:	10430014 	beq	v0,v1,403ec4 <_init+0x27d8>
  403e74:	24030004 	li	v1,4
  403e78:	10430015 	beq	v0,v1,403ed0 <_init+0x27e4>
  403e7c:	24030005 	li	v1,5
  403e80:	10430016 	beq	v0,v1,403edc <_init+0x27f0>
  403e84:	3c020047 	lui	v0,0x47
  403e88:	3c020047 	lui	v0,0x47
  403e8c:	244257a0 	addiu	v0,v0,22432
  403e90:	8fbf001c 	lw	ra,28(sp)
  403e94:	03e00008 	jr	ra
  403e98:	27bd0020 	addiu	sp,sp,32
  403e9c:	8fbf001c 	lw	ra,28(sp)
  403ea0:	3c020047 	lui	v0,0x47
  403ea4:	24425778 	addiu	v0,v0,22392
  403ea8:	03e00008 	jr	ra
  403eac:	27bd0020 	addiu	sp,sp,32
  403eb0:	8fbf001c 	lw	ra,28(sp)
  403eb4:	3c020047 	lui	v0,0x47
  403eb8:	2442577c 	addiu	v0,v0,22396
  403ebc:	03e00008 	jr	ra
  403ec0:	27bd0020 	addiu	sp,sp,32
  403ec4:	3c020047 	lui	v0,0x47
  403ec8:	1000fff1 	b	403e90 <_init+0x27a4>
  403ecc:	24425788 	addiu	v0,v0,22408
  403ed0:	3c020047 	lui	v0,0x47
  403ed4:	1000ffee 	b	403e90 <_init+0x27a4>
  403ed8:	2442578c 	addiu	v0,v0,22412
  403edc:	1000ffec 	b	403e90 <_init+0x27a4>
  403ee0:	24425798 	addiu	v0,v0,22424
  403ee4:	27bdffe0 	addiu	sp,sp,-32
  403ee8:	afbf001c 	sw	ra,28(sp)
  403eec:	0c101412 	jal	405048 <_init+0x395c>
  403ef0:	00000000 	nop
  403ef4:	8fbf001c 	lw	ra,28(sp)
  403ef8:	03e00008 	jr	ra
  403efc:	27bd0020 	addiu	sp,sp,32
  403f00:	27bdfdb8 	addiu	sp,sp,-584
  403f04:	3c050048 	lui	a1,0x48
  403f08:	afb40240 	sw	s4,576(sp)
  403f0c:	3c140047 	lui	s4,0x47
  403f10:	26845840 	addiu	a0,s4,22592
  403f14:	24a54aec 	addiu	a1,a1,19180
  403f18:	afbf0244 	sw	ra,580(sp)
  403f1c:	afb3023c 	sw	s3,572(sp)
  403f20:	afb20238 	sw	s2,568(sp)
  403f24:	afb10234 	sw	s1,564(sp)
  403f28:	0c125814 	jal	496050 <fopen@plt>
  403f2c:	afb00230 	sw	s0,560(sp)
  403f30:	10400045 	beqz	v0,404048 <_init+0x295c>
  403f34:	3c120047 	lui	s2,0x47
  403f38:	3c130047 	lui	s3,0x47
  403f3c:	00408821 	move	s1,v0
  403f40:	265258d4 	addiu	s2,s2,22740
  403f44:	267358e8 	addiu	s3,s3,22760
  403f48:	27a40030 	addiu	a0,sp,48
  403f4c:	02203021 	move	a2,s1
  403f50:	0c125834 	jal	4960d0 <fgets@plt>
  403f54:	24050200 	li	a1,512
  403f58:	00408021 	move	s0,v0
  403f5c:	1040001b 	beqz	v0,403fcc <_init+0x28e0>
  403f60:	27a40030 	addiu	a0,sp,48
  403f64:	0c1258cc 	jal	496330 <strlen@plt>
  403f68:	00000000 	nop
  403f6c:	28420018 	slti	v0,v0,24
  403f70:	02002021 	move	a0,s0
  403f74:	1440fff4 	bnez	v0,403f48 <_init+0x285c>
  403f78:	02402821 	move	a1,s2
  403f7c:	0c1257f0 	jal	495fc0 <strstr@plt>
  403f80:	00000000 	nop
  403f84:	24440011 	addiu	a0,v0,17
  403f88:	1040ffef 	beqz	v0,403f48 <_init+0x285c>
  403f8c:	02602821 	move	a1,s3
  403f90:	0c1257f0 	jal	495fc0 <strstr@plt>
  403f94:	00000000 	nop
  403f98:	1040ffec 	beqz	v0,403f4c <_init+0x2860>
  403f9c:	27a40030 	addiu	a0,sp,48
  403fa0:	0c125948 	jal	496520 <fclose@plt>
  403fa4:	02202021 	move	a0,s1
  403fa8:	8fbf0244 	lw	ra,580(sp)
  403fac:	8fb40240 	lw	s4,576(sp)
  403fb0:	8fb3023c 	lw	s3,572(sp)
  403fb4:	8fb20238 	lw	s2,568(sp)
  403fb8:	8fb10234 	lw	s1,564(sp)
  403fbc:	8fb00230 	lw	s0,560(sp)
  403fc0:	24020001 	li	v0,1
  403fc4:	03e00008 	jr	ra
  403fc8:	27bd0248 	addiu	sp,sp,584
  403fcc:	0c11ca4c 	jal	472930 <_init+0x71244>
  403fd0:	26945840 	addiu	s4,s4,22592
  403fd4:	00402821 	move	a1,v0
  403fd8:	3c020047 	lui	v0,0x47
  403fdc:	24425850 	addiu	v0,v0,22608
  403fe0:	afa20010 	sw	v0,16(sp)
  403fe4:	24020237 	li	v0,567
  403fe8:	afa20014 	sw	v0,20(sp)
  403fec:	3c020047 	lui	v0,0x47
  403ff0:	24425e48 	addiu	v0,v0,24136
  403ff4:	afa20018 	sw	v0,24(sp)
  403ff8:	3c020047 	lui	v0,0x47
  403ffc:	244258b4 	addiu	v0,v0,22708
  404000:	3c070047 	lui	a3,0x47
  404004:	24040003 	li	a0,3
  404008:	24060002 	li	a2,2
  40400c:	24e75688 	addiu	a3,a3,22152
  404010:	afa2001c 	sw	v0,28(sp)
  404014:	0c11cb29 	jal	472ca4 <_init+0x715b8>
  404018:	afb40020 	sw	s4,32(sp)
  40401c:	0c125948 	jal	496520 <fclose@plt>
  404020:	02202021 	move	a0,s1
  404024:	00001021 	move	v0,zero
  404028:	8fbf0244 	lw	ra,580(sp)
  40402c:	8fb40240 	lw	s4,576(sp)
  404030:	8fb3023c 	lw	s3,572(sp)
  404034:	8fb20238 	lw	s2,568(sp)
  404038:	8fb10234 	lw	s1,564(sp)
  40403c:	8fb00230 	lw	s0,560(sp)
  404040:	03e00008 	jr	ra
  404044:	27bd0248 	addiu	sp,sp,584
  404048:	0c11ca4c 	jal	472930 <_init+0x71244>
  40404c:	26945840 	addiu	s4,s4,22592
  404050:	3c030047 	lui	v1,0x47
  404054:	24635850 	addiu	v1,v1,22608
  404058:	afa30010 	sw	v1,16(sp)
  40405c:	24030230 	li	v1,560
  404060:	afa30014 	sw	v1,20(sp)
  404064:	3c030047 	lui	v1,0x47
  404068:	24635e48 	addiu	v1,v1,24136
  40406c:	afa30018 	sw	v1,24(sp)
  404070:	3c030047 	lui	v1,0x47
  404074:	24635894 	addiu	v1,v1,22676
  404078:	3c070047 	lui	a3,0x47
  40407c:	00402821 	move	a1,v0
  404080:	afa3001c 	sw	v1,28(sp)
  404084:	afb40020 	sw	s4,32(sp)
  404088:	24040003 	li	a0,3
  40408c:	24060002 	li	a2,2
  404090:	0c11cb29 	jal	472ca4 <_init+0x715b8>
  404094:	24e75688 	addiu	a3,a3,22152
  404098:	1000ffe3 	b	404028 <_init+0x293c>
  40409c:	00001021 	move	v0,zero
  4040a0:	27bdffb8 	addiu	sp,sp,-72
  4040a4:	24024012 	li	v0,16402
  4040a8:	afb50040 	sw	s5,64(sp)
  4040ac:	afb20034 	sw	s2,52(sp)
  4040b0:	00a0a821 	move	s5,a1
  4040b4:	00809021 	move	s2,a0
  4040b8:	24054010 	li	a1,16400
  4040bc:	3c040047 	lui	a0,0x47
  4040c0:	248458f0 	addiu	a0,a0,22768
  4040c4:	0046280b 	movn	a1,v0,a2
  4040c8:	afb10030 	sw	s1,48(sp)
  4040cc:	afbf0044 	sw	ra,68(sp)
  4040d0:	afb4003c 	sw	s4,60(sp)
  4040d4:	afb30038 	sw	s3,56(sp)
  4040d8:	afb0002c 	sw	s0,44(sp)
  4040dc:	0c1258b0 	jal	4962c0 <open@plt>
  4040e0:	00c08821 	move	s1,a2
  4040e4:	04400062 	bltz	v0,404270 <_init+0x2b84>
  4040e8:	00000000 	nop
  4040ec:	0c1258e0 	jal	496380 <getpagesize@plt>
  4040f0:	00408021 	move	s0,v0
  4040f4:	2454ffff 	addiu	s4,v0,-1
  4040f8:	0292a024 	and	s4,s4,s2
  4040fc:	26930020 	addiu	s3,s4,32
  404100:	0053982b 	sltu	s3,v0,s3
  404104:	00022040 	sll	a0,v0,0x1
  404108:	00401821 	move	v1,v0
  40410c:	00021023 	negu	v0,v0
  404110:	0093180b 	movn	v1,a0,s3
  404114:	00529024 	and	s2,v0,s2
  404118:	24060001 	li	a2,1
  40411c:	24020003 	li	v0,3
  404120:	00602821 	move	a1,v1
  404124:	afb00010 	sw	s0,16(sp)
  404128:	afb20014 	sw	s2,20(sp)
  40412c:	00002021 	move	a0,zero
  404130:	0051300b 	movn	a2,v0,s1
  404134:	24070001 	li	a3,1
  404138:	0c1258c0 	jal	496300 <mmap@plt>
  40413c:	00609821 	move	s3,v1
  404140:	2403ffff 	li	v1,-1
  404144:	10430035 	beq	v0,v1,40421c <_init+0x2b30>
  404148:	00000000 	nop
  40414c:	12200016 	beqz	s1,4041a8 <_init+0x2abc>
  404150:	0054a021 	addu	s4,v0,s4
  404154:	8ea30000 	lw	v1,0(s5)
  404158:	00402021 	move	a0,v0
  40415c:	02602821 	move	a1,s3
  404160:	ae830000 	sw	v1,0(s4)
  404164:	0c125930 	jal	4964c0 <munmap@plt>
  404168:	00008821 	move	s1,zero
  40416c:	2403ffff 	li	v1,-1
  404170:	10430015 	beq	v0,v1,4041c8 <_init+0x2adc>
  404174:	00000000 	nop
  404178:	0c125970 	jal	4965c0 <close@plt>
  40417c:	02002021 	move	a0,s0
  404180:	8fbf0044 	lw	ra,68(sp)
  404184:	02201021 	move	v0,s1
  404188:	8fb50040 	lw	s5,64(sp)
  40418c:	8fb4003c 	lw	s4,60(sp)
  404190:	8fb30038 	lw	s3,56(sp)
  404194:	8fb20034 	lw	s2,52(sp)
  404198:	8fb10030 	lw	s1,48(sp)
  40419c:	8fb0002c 	lw	s0,44(sp)
  4041a0:	03e00008 	jr	ra
  4041a4:	27bd0048 	addiu	sp,sp,72
  4041a8:	8e830000 	lw	v1,0(s4)
  4041ac:	00402021 	move	a0,v0
  4041b0:	02602821 	move	a1,s3
  4041b4:	0c125930 	jal	4964c0 <munmap@plt>
  4041b8:	aea30000 	sw	v1,0(s5)
  4041bc:	2403ffff 	li	v1,-1
  4041c0:	1443ffed 	bne	v0,v1,404178 <_init+0x2a8c>
  4041c4:	00008821 	move	s1,zero
  4041c8:	0c11ca4c 	jal	472930 <_init+0x71244>
  4041cc:	00000000 	nop
  4041d0:	3c030047 	lui	v1,0x47
  4041d4:	24635850 	addiu	v1,v1,22608
  4041d8:	afa30010 	sw	v1,16(sp)
  4041dc:	24030211 	li	v1,529
  4041e0:	afa30014 	sw	v1,20(sp)
  4041e4:	3c030047 	lui	v1,0x47
  4041e8:	24635e34 	addiu	v1,v1,24116
  4041ec:	afa30018 	sw	v1,24(sp)
  4041f0:	3c030047 	lui	v1,0x47
  4041f4:	24635924 	addiu	v1,v1,22820
  4041f8:	3c070047 	lui	a3,0x47
  4041fc:	afa3001c 	sw	v1,28(sp)
  404200:	24040006 	li	a0,6
  404204:	00402821 	move	a1,v0
  404208:	24060002 	li	a2,2
  40420c:	0c11cb29 	jal	472ca4 <_init+0x715b8>
  404210:	24e75688 	addiu	a3,a3,22152
  404214:	1000ffd8 	b	404178 <_init+0x2a8c>
  404218:	00000000 	nop
  40421c:	0c11ca4c 	jal	472930 <_init+0x71244>
  404220:	2411ffff 	li	s1,-1
  404224:	3c030047 	lui	v1,0x47
  404228:	24635850 	addiu	v1,v1,22608
  40422c:	afa30010 	sw	v1,16(sp)
  404230:	24030204 	li	v1,516
  404234:	afa30014 	sw	v1,20(sp)
  404238:	3c030047 	lui	v1,0x47
  40423c:	24635e34 	addiu	v1,v1,24116
  404240:	afa30018 	sw	v1,24(sp)
  404244:	3c030047 	lui	v1,0x47
  404248:	24635914 	addiu	v1,v1,22804
  40424c:	3c070047 	lui	a3,0x47
  404250:	afa3001c 	sw	v1,28(sp)
  404254:	24040006 	li	a0,6
  404258:	00402821 	move	a1,v0
  40425c:	24060002 	li	a2,2
  404260:	0c11cb29 	jal	472ca4 <_init+0x715b8>
  404264:	24e75688 	addiu	a3,a3,22152
  404268:	1000ffc3 	b	404178 <_init+0x2a8c>
  40426c:	00000000 	nop
  404270:	0c11ca4c 	jal	472930 <_init+0x71244>
  404274:	2411ffff 	li	s1,-1
  404278:	3c030047 	lui	v1,0x47
  40427c:	24635850 	addiu	v1,v1,22608
  404280:	afa30010 	sw	v1,16(sp)
  404284:	240301f2 	li	v1,498
  404288:	afa30014 	sw	v1,20(sp)
  40428c:	3c030047 	lui	v1,0x47
  404290:	24635e34 	addiu	v1,v1,24116
  404294:	afa30018 	sw	v1,24(sp)
  404298:	3c030047 	lui	v1,0x47
  40429c:	246358fc 	addiu	v1,v1,22780
  4042a0:	3c070047 	lui	a3,0x47
  4042a4:	afa3001c 	sw	v1,28(sp)
  4042a8:	24040006 	li	a0,6
  4042ac:	00402821 	move	a1,v0
  4042b0:	24060002 	li	a2,2
  4042b4:	0c11cb29 	jal	472ca4 <_init+0x715b8>
  4042b8:	24e75688 	addiu	a3,a3,22152
  4042bc:	1000ffb1 	b	404184 <_init+0x2a98>
  4042c0:	8fbf0044 	lw	ra,68(sp)
  4042c4:	27bdff58 	addiu	sp,sp,-168
  4042c8:	00003021 	move	a2,zero
  4042cc:	00003821 	move	a3,zero
  4042d0:	00051080 	sll	v0,a1,0x2
  4042d4:	afbe00a0 	sw	s8,160(sp)
  4042d8:	afbf00a4 	sw	ra,164(sp)
  4042dc:	afb7009c 	sw	s7,156(sp)
  4042e0:	afb60098 	sw	s6,152(sp)
  4042e4:	afb50094 	sw	s5,148(sp)
  4042e8:	afb40090 	sw	s4,144(sp)
  4042ec:	afb3008c 	sw	s3,140(sp)
  4042f0:	afb20088 	sw	s2,136(sp)
  4042f4:	afb10084 	sw	s1,132(sp)
  4042f8:	afb00080 	sw	s0,128(sp)
  4042fc:	0080f021 	move	s8,a0
  404300:	afa60038 	sw	a2,56(sp)
  404304:	afa7003c 	sw	a3,60(sp)
  404308:	afa60040 	sw	a2,64(sp)
  40430c:	afa70044 	sw	a3,68(sp)
  404310:	afa60048 	sw	a2,72(sp)
  404314:	afa7004c 	sw	a3,76(sp)
  404318:	afa60050 	sw	a2,80(sp)
  40431c:	afa70054 	sw	a3,84(sp)
  404320:	afa60058 	sw	a2,88(sp)
  404324:	afa7005c 	sw	a3,92(sp)
  404328:	afa60060 	sw	a2,96(sp)
  40432c:	afa70064 	sw	a3,100(sp)
  404330:	afa60068 	sw	a2,104(sp)
  404334:	afa7006c 	sw	a3,108(sp)
  404338:	afa60070 	sw	a2,112(sp)
  40433c:	18400046 	blez	v0,404458 <_init+0x2d6c>
  404340:	afa70074 	sw	a3,116(sp)
  404344:	2442ffff 	addiu	v0,v0,-1
  404348:	00022082 	srl	a0,v0,0x2
  40434c:	27b20038 	addiu	s2,sp,56
  404350:	00043080 	sll	a2,a0,0x2
  404354:	27a7003c 	addiu	a3,sp,60
  404358:	02401021 	move	v0,s2
  40435c:	00e63021 	addu	a2,a3,a2
  404360:	24030020 	li	v1,32
  404364:	a0430000 	sb	v1,0(v0)
  404368:	a0430001 	sb	v1,1(v0)
  40436c:	a0430002 	sb	v1,2(v0)
  404370:	a0430003 	sb	v1,3(v0)
  404374:	24420004 	addiu	v0,v0,4
  404378:	1446fffa 	bne	v0,a2,404364 <_init+0x2c78>
  40437c:	00000000 	nop
  404380:	24830001 	addiu	v1,a0,1
  404384:	00031880 	sll	v1,v1,0x2
  404388:	8fc2003c 	lw	v0,60(s8)
  40438c:	02431821 	addu	v1,s2,v1
  404390:	18400025 	blez	v0,404428 <_init+0x2d3c>
  404394:	a0600000 	sb	zero,0(v1)
  404398:	24a50001 	addiu	a1,a1,1
  40439c:	3c170047 	lui	s7,0x47
  4043a0:	3c160047 	lui	s6,0x47
  4043a4:	3c150047 	lui	s5,0x47
  4043a8:	3c130047 	lui	s3,0x47
  4043ac:	afa50078 	sw	a1,120(sp)
  4043b0:	03c0a021 	move	s4,s8
  4043b4:	00008021 	move	s0,zero
  4043b8:	26f75850 	addiu	s7,s7,22608
  4043bc:	26d65d94 	addiu	s6,s6,23956
  4043c0:	26b55934 	addiu	s5,s5,22836
  4043c4:	26735688 	addiu	s3,s3,22152
  4043c8:	0c11ca4c 	jal	472930 <_init+0x71244>
  4043cc:	8e910014 	lw	s1,20(s4)
  4043d0:	00402821 	move	a1,v0
  4043d4:	2402018b 	li	v0,395
  4043d8:	afa20014 	sw	v0,20(sp)
  4043dc:	afb00028 	sw	s0,40(sp)
  4043e0:	24040004 	li	a0,4
  4043e4:	24060002 	li	a2,2
  4043e8:	02603821 	move	a3,s3
  4043ec:	afb70010 	sw	s7,16(sp)
  4043f0:	afb60018 	sw	s6,24(sp)
  4043f4:	afb5001c 	sw	s5,28(sp)
  4043f8:	afb20020 	sw	s2,32(sp)
  4043fc:	afbe0024 	sw	s8,36(sp)
  404400:	0c11cb29 	jal	472ca4 <_init+0x715b8>
  404404:	afb1002c 	sw	s1,44(sp)
  404408:	8fa50078 	lw	a1,120(sp)
  40440c:	02202021 	move	a0,s1
  404410:	0c1010b1 	jal	4042c4 <_init+0x2bd8>
  404414:	26100001 	addiu	s0,s0,1
  404418:	8fc2003c 	lw	v0,60(s8)
  40441c:	0202102a 	slt	v0,s0,v0
  404420:	1440ffe9 	bnez	v0,4043c8 <_init+0x2cdc>
  404424:	26940008 	addiu	s4,s4,8
  404428:	8fbf00a4 	lw	ra,164(sp)
  40442c:	8fbe00a0 	lw	s8,160(sp)
  404430:	8fb7009c 	lw	s7,156(sp)
  404434:	8fb60098 	lw	s6,152(sp)
  404438:	8fb50094 	lw	s5,148(sp)
  40443c:	8fb40090 	lw	s4,144(sp)
  404440:	8fb3008c 	lw	s3,140(sp)
  404444:	8fb20088 	lw	s2,136(sp)
  404448:	8fb10084 	lw	s1,132(sp)
  40444c:	8fb00080 	lw	s0,128(sp)
  404450:	03e00008 	jr	ra
  404454:	27bd00a8 	addiu	sp,sp,168
  404458:	00001821 	move	v1,zero
  40445c:	1000ffca 	b	404388 <_init+0x2c9c>
  404460:	27b20038 	addiu	s2,sp,56
  404464:	27bdffd8 	addiu	sp,sp,-40
  404468:	24020001 	li	v0,1
  40446c:	1082002f 	beq	a0,v0,40452c <_init+0x2e40>
  404470:	afbf0024 	sw	ra,36(sp)
  404474:	14800025 	bnez	a0,40450c <_init+0x2e20>
  404478:	24020002 	li	v0,2
  40447c:	24040004 	li	a0,4
  404480:	0c12595c 	jal	496570 <clock_gettime@plt>
  404484:	27a50018 	addiu	a1,sp,24
  404488:	0440002e 	bltz	v0,404544 <_init+0x2e58>
  40448c:	8fbf0024 	lw	ra,36(sp)
  404490:	8fa2001c 	lw	v0,28(sp)
  404494:	3c071062 	lui	a3,0x1062
  404498:	24e74dd3 	addiu	a3,a3,19923
  40449c:	00470018 	mult	v0,a3
  4044a0:	00024fc3 	sra	t1,v0,0x1f
  4044a4:	3c04004b 	lui	a0,0x4b
  4044a8:	8c866cc0 	lw	a2,27840(a0)
  4044ac:	8c886cc4 	lw	t0,27844(a0)
  4044b0:	8fbf0024 	lw	ra,36(sp)
  4044b4:	00003810 	mfhi	a3
  4044b8:	00073983 	sra	a3,a3,0x6
  4044bc:	00e93823 	subu	a3,a3,t1
  4044c0:	00e01021 	move	v0,a3
  4044c4:	8fa90018 	lw	t1,24(sp)
  4044c8:	00071fc3 	sra	v1,a3,0x1f
  4044cc:	00400013 	mtlo	v0
  4044d0:	3c07000f 	lui	a3,0xf
  4044d4:	24e74240 	addiu	a3,a3,16960
  4044d8:	00600011 	mthi	v1
  4044dc:	27bd0028 	addiu	sp,sp,40
  4044e0:	71270000 	madd	t1,a3
  4044e4:	00001012 	mflo	v0
  4044e8:	00463023 	subu	a2,v0,a2
  4044ec:	0046102b 	sltu	v0,v0,a2
  4044f0:	00001810 	mfhi	v1
  4044f4:	00681823 	subu	v1,v1,t0
  4044f8:	00622823 	subu	a1,v1,v0
  4044fc:	00c02021 	move	a0,a2
  404500:	00801021 	move	v0,a0
  404504:	03e00008 	jr	ra
  404508:	00a01821 	move	v1,a1
  40450c:	10820013 	beq	a0,v0,40455c <_init+0x2e70>
  404510:	8fbf0024 	lw	ra,36(sp)
  404514:	2404ffff 	li	a0,-1
  404518:	2405ffff 	li	a1,-1
  40451c:	00801021 	move	v0,a0
  404520:	00a01821 	move	v1,a1
  404524:	03e00008 	jr	ra
  404528:	27bd0028 	addiu	sp,sp,40
  40452c:	24040002 	li	a0,2
  404530:	0c12595c 	jal	496570 <clock_gettime@plt>
  404534:	27a50018 	addiu	a1,sp,24
  404538:	0441ffd6 	bgez	v0,404494 <_init+0x2da8>
  40453c:	8fa2001c 	lw	v0,28(sp)
  404540:	8fbf0024 	lw	ra,36(sp)
  404544:	00002021 	move	a0,zero
  404548:	00002821 	move	a1,zero
  40454c:	00801021 	move	v0,a0
  404550:	00a01821 	move	v1,a1
  404554:	03e00008 	jr	ra
  404558:	27bd0028 	addiu	sp,sp,40
  40455c:	1000ffc8 	b	404480 <_init+0x2d94>
  404560:	24040003 	li	a0,3
  404564:	27bdff98 	addiu	sp,sp,-104
  404568:	afbf0064 	sw	ra,100(sp)
  40456c:	10800020 	beqz	a0,4045f0 <_init+0x2f04>
  404570:	afb00060 	sw	s0,96(sp)
  404574:	28a50015 	slti	a1,a1,21
  404578:	14a0001d 	bnez	a1,4045f0 <_init+0x2f04>
  40457c:	00808021 	move	s0,a0
  404580:	0c12583c 	jal	4960f0 <time@plt>
  404584:	00002021 	move	a0,zero
  404588:	27a4005c 	addiu	a0,sp,92
  40458c:	27a50030 	addiu	a1,sp,48
  404590:	0c125868 	jal	4961a0 <localtime_r@plt>
  404594:	afa2005c 	sw	v0,92(sp)
  404598:	1040002e 	beqz	v0,404654 <_init+0x2f68>
  40459c:	8fa60044 	lw	a2,68(sp)
  4045a0:	8fa2003c 	lw	v0,60(sp)
  4045a4:	8fa70040 	lw	a3,64(sp)
  4045a8:	afa20010 	sw	v0,16(sp)
  4045ac:	8fa20038 	lw	v0,56(sp)
  4045b0:	3c050047 	lui	a1,0x47
  4045b4:	02002021 	move	a0,s0
  4045b8:	afa20014 	sw	v0,20(sp)
  4045bc:	8fa20034 	lw	v0,52(sp)
  4045c0:	24a55984 	addiu	a1,a1,22916
  4045c4:	24c6076c 	addiu	a2,a2,1900
  4045c8:	afa20018 	sw	v0,24(sp)
  4045cc:	8fa20030 	lw	v0,48(sp)
  4045d0:	24e70001 	addiu	a3,a3,1
  4045d4:	0c125950 	jal	496540 <sprintf@plt>
  4045d8:	afa2001c 	sw	v0,28(sp)
  4045dc:	8fbf0064 	lw	ra,100(sp)
  4045e0:	8fb00060 	lw	s0,96(sp)
  4045e4:	00001021 	move	v0,zero
  4045e8:	03e00008 	jr	ra
  4045ec:	27bd0068 	addiu	sp,sp,104
  4045f0:	0c11ca4c 	jal	472930 <_init+0x71244>
  4045f4:	00000000 	nop
  4045f8:	3c040047 	lui	a0,0x47
  4045fc:	24845850 	addiu	a0,a0,22608
  404600:	3c030047 	lui	v1,0x47
  404604:	afa40010 	sw	a0,16(sp)
  404608:	240400ca 	li	a0,202
  40460c:	24635d18 	addiu	v1,v1,23832
  404610:	afa40014 	sw	a0,20(sp)
  404614:	3c040047 	lui	a0,0x47
  404618:	afa30018 	sw	v1,24(sp)
  40461c:	24845944 	addiu	a0,a0,22852
  404620:	3c070047 	lui	a3,0x47
  404624:	afa4001c 	sw	a0,28(sp)
  404628:	afa30020 	sw	v1,32(sp)
  40462c:	00402821 	move	a1,v0
  404630:	24040006 	li	a0,6
  404634:	24060002 	li	a2,2
  404638:	0c11cb29 	jal	472ca4 <_init+0x715b8>
  40463c:	24e75688 	addiu	a3,a3,22152
  404640:	8fbf0064 	lw	ra,100(sp)
  404644:	8fb00060 	lw	s0,96(sp)
  404648:	2402ffff 	li	v0,-1
  40464c:	03e00008 	jr	ra
  404650:	27bd0068 	addiu	sp,sp,104
  404654:	0c11ca4c 	jal	472930 <_init+0x71244>
  404658:	00000000 	nop
  40465c:	3c040047 	lui	a0,0x47
  404660:	24845850 	addiu	a0,a0,22608
  404664:	3c030047 	lui	v1,0x47
  404668:	afa40010 	sw	a0,16(sp)
  40466c:	240400d0 	li	a0,208
  404670:	24635d18 	addiu	v1,v1,23832
  404674:	afa40014 	sw	a0,20(sp)
  404678:	3c040047 	lui	a0,0x47
  40467c:	afa30018 	sw	v1,24(sp)
  404680:	1000ffe7 	b	404620 <_init+0x2f34>
  404684:	2484596c 	addiu	a0,a0,22892
  404688:	27bdffd0 	addiu	sp,sp,-48
  40468c:	afb10028 	sw	s1,40(sp)
  404690:	afb00024 	sw	s0,36(sp)
  404694:	00808821 	move	s1,a0
  404698:	00a08021 	move	s0,a1
  40469c:	24040004 	li	a0,4
  4046a0:	afbf002c 	sw	ra,44(sp)
  4046a4:	0c12595c 	jal	496570 <clock_gettime@plt>
  4046a8:	27a50018 	addiu	a1,sp,24
  4046ac:	0440001e 	bltz	v0,404728 <_init+0x303c>
  4046b0:	3c081062 	lui	t0,0x1062
  4046b4:	8fa2001c 	lw	v0,28(sp)
  4046b8:	25084dd3 	addiu	t0,t0,19923
  4046bc:	00480018 	mult	v0,t0
  4046c0:	000227c3 	sra	a0,v0,0x1f
  4046c4:	8fa50018 	lw	a1,24(sp)
  4046c8:	3c03004b 	lui	v1,0x4b
  4046cc:	00001021 	move	v0,zero
  4046d0:	00004010 	mfhi	t0
  4046d4:	00084183 	sra	t0,t0,0x6
  4046d8:	01044023 	subu	t0,t0,a0
  4046dc:	00083fc3 	sra	a3,t0,0x1f
  4046e0:	3c04000f 	lui	a0,0xf
  4046e4:	01000013 	mtlo	t0
  4046e8:	24844240 	addiu	a0,a0,16960
  4046ec:	00e00011 	mthi	a3
  4046f0:	70a40000 	madd	a1,a0
  4046f4:	00003012 	mflo	a2
  4046f8:	00d12023 	subu	a0,a2,s1
  4046fc:	00c4282b 	sltu	a1,a2,a0
  404700:	00003810 	mfhi	a3
  404704:	00f08023 	subu	s0,a3,s0
  404708:	02058023 	subu	s0,s0,a1
  40470c:	ac646cc0 	sw	a0,27840(v1)
  404710:	ac706cc4 	sw	s0,27844(v1)
  404714:	8fbf002c 	lw	ra,44(sp)
  404718:	8fb10028 	lw	s1,40(sp)
  40471c:	8fb00024 	lw	s0,36(sp)
  404720:	03e00008 	jr	ra
  404724:	27bd0030 	addiu	sp,sp,48
  404728:	1000fffa 	b	404714 <_init+0x3028>
  40472c:	2402ffff 	li	v0,-1
  404730:	27bdff90 	addiu	sp,sp,-112
  404734:	afb00054 	sw	s0,84(sp)
  404738:	00808021 	move	s0,a0
  40473c:	afb10058 	sw	s1,88(sp)
  404740:	8c840000 	lw	a0,0(a0)
  404744:	00a08821 	move	s1,a1
  404748:	8e050004 	lw	a1,4(s0)
  40474c:	afbf006c 	sw	ra,108(sp)
  404750:	afb2005c 	sw	s2,92(sp)
  404754:	afb50068 	sw	s5,104(sp)
  404758:	afb40064 	sw	s4,100(sp)
  40475c:	0c10f1e1 	jal	43c784 <_init+0x3b098>
  404760:	afb30060 	sw	s3,96(sp)
  404764:	8e240000 	lw	a0,0(s1)
  404768:	8e250004 	lw	a1,4(s1)
  40476c:	0c10f1e1 	jal	43c784 <_init+0x3b098>
  404770:	00409021 	move	s2,v0
  404774:	1240006e 	beqz	s2,404930 <_init+0x3244>
  404778:	00000000 	nop
  40477c:	10400050 	beqz	v0,4048c0 <_init+0x31d4>
  404780:	00000000 	nop
  404784:	0c11ca4c 	jal	472930 <_init+0x71244>
  404788:	00409821 	move	s3,v0
  40478c:	8e270004 	lw	a3,4(s1)
  404790:	8e260008 	lw	a2,8(s1)
  404794:	8e280000 	lw	t0,0(s1)
  404798:	8e050000 	lw	a1,0(s0)
  40479c:	8e040004 	lw	a0,4(s0)
  4047a0:	8e030008 	lw	v1,8(s0)
  4047a4:	240900f8 	li	t1,248
  4047a8:	afa90014 	sw	t1,20(sp)
  4047ac:	3c110047 	lui	s1,0x47
  4047b0:	3c150047 	lui	s5,0x47
  4047b4:	3c090047 	lui	t1,0x47
  4047b8:	26315d30 	addiu	s1,s1,23856
  4047bc:	252959f8 	addiu	t1,t1,23032
  4047c0:	26b55850 	addiu	s5,s5,22608
  4047c4:	3c140047 	lui	s4,0x47
  4047c8:	afa7002c 	sw	a3,44(sp)
  4047cc:	afa60030 	sw	a2,48(sp)
  4047d0:	afa50038 	sw	a1,56(sp)
  4047d4:	afa4003c 	sw	a0,60(sp)
  4047d8:	afa30040 	sw	v1,64(sp)
  4047dc:	00402821 	move	a1,v0
  4047e0:	afb50010 	sw	s5,16(sp)
  4047e4:	afb10018 	sw	s1,24(sp)
  4047e8:	afa9001c 	sw	t1,28(sp)
  4047ec:	afb10020 	sw	s1,32(sp)
  4047f0:	afb30024 	sw	s3,36(sp)
  4047f4:	afa80028 	sw	t0,40(sp)
  4047f8:	afb20034 	sw	s2,52(sp)
  4047fc:	24040003 	li	a0,3
  404800:	24060002 	li	a2,2
  404804:	0c11cb29 	jal	472ca4 <_init+0x715b8>
  404808:	26875688 	addiu	a3,s4,22152
  40480c:	8e020008 	lw	v0,8(s0)
  404810:	8e430130 	lw	v1,304(s2)
  404814:	0043182a 	slt	v1,v0,v1
  404818:	10600011 	beqz	v1,404860 <_init+0x3174>
  40481c:	26460124 	addiu	a2,s2,292
  404820:	24420004 	addiu	v0,v0,4
  404824:	00021080 	sll	v0,v0,0x2
  404828:	00c23021 	addu	a2,a2,v0
  40482c:	02402021 	move	a0,s2
  404830:	0c10f09e 	jal	43c278 <_init+0x3ab8c>
  404834:	02602821 	move	a1,s3
  404838:	00001021 	move	v0,zero
  40483c:	8fbf006c 	lw	ra,108(sp)
  404840:	8fb50068 	lw	s5,104(sp)
  404844:	8fb40064 	lw	s4,100(sp)
  404848:	8fb30060 	lw	s3,96(sp)
  40484c:	8fb2005c 	lw	s2,92(sp)
  404850:	8fb10058 	lw	s1,88(sp)
  404854:	8fb00054 	lw	s0,84(sp)
  404858:	03e00008 	jr	ra
  40485c:	27bd0070 	addiu	sp,sp,112
  404860:	0c11ca4c 	jal	472930 <_init+0x71244>
  404864:	00000000 	nop
  404868:	8e050000 	lw	a1,0(s0)
  40486c:	8e040004 	lw	a0,4(s0)
  404870:	8e030008 	lw	v1,8(s0)
  404874:	240600fe 	li	a2,254
  404878:	afa60014 	sw	a2,20(sp)
  40487c:	3c060047 	lui	a2,0x47
  404880:	24c65a2c 	addiu	a2,a2,23084
  404884:	afa6001c 	sw	a2,28(sp)
  404888:	afa50028 	sw	a1,40(sp)
  40488c:	afa4002c 	sw	a0,44(sp)
  404890:	00402821 	move	a1,v0
  404894:	afb50010 	sw	s5,16(sp)
  404898:	afb10018 	sw	s1,24(sp)
  40489c:	afb10020 	sw	s1,32(sp)
  4048a0:	afb20024 	sw	s2,36(sp)
  4048a4:	afa30030 	sw	v1,48(sp)
  4048a8:	24040006 	li	a0,6
  4048ac:	24060002 	li	a2,2
  4048b0:	0c11cb29 	jal	472ca4 <_init+0x715b8>
  4048b4:	26875688 	addiu	a3,s4,22152
  4048b8:	1000ffe0 	b	40483c <_init+0x3150>
  4048bc:	2402ffff 	li	v0,-1
  4048c0:	0c11ca4c 	jal	472930 <_init+0x71244>
  4048c4:	00000000 	nop
  4048c8:	3c070047 	lui	a3,0x47
  4048cc:	24e75850 	addiu	a3,a3,22608
  4048d0:	8e260000 	lw	a2,0(s1)
  4048d4:	8e250004 	lw	a1,4(s1)
  4048d8:	8e240008 	lw	a0,8(s1)
  4048dc:	3c030047 	lui	v1,0x47
  4048e0:	afa70010 	sw	a3,16(sp)
  4048e4:	240700f2 	li	a3,242
  4048e8:	24635d30 	addiu	v1,v1,23856
  4048ec:	afa70014 	sw	a3,20(sp)
  4048f0:	3c070047 	lui	a3,0x47
  4048f4:	afa30018 	sw	v1,24(sp)
  4048f8:	24e759cc 	addiu	a3,a3,22988
  4048fc:	afa7001c 	sw	a3,28(sp)
  404900:	3c070047 	lui	a3,0x47
  404904:	afa60024 	sw	a2,36(sp)
  404908:	afa50028 	sw	a1,40(sp)
  40490c:	afa4002c 	sw	a0,44(sp)
  404910:	00402821 	move	a1,v0
  404914:	afa30020 	sw	v1,32(sp)
  404918:	24040006 	li	a0,6
  40491c:	24060002 	li	a2,2
  404920:	0c11cb29 	jal	472ca4 <_init+0x715b8>
  404924:	24e75688 	addiu	a3,a3,22152
  404928:	1000ffc4 	b	40483c <_init+0x3150>
  40492c:	2402ffff 	li	v0,-1
  404930:	0c11ca4c 	jal	472930 <_init+0x71244>
  404934:	00000000 	nop
  404938:	3c070047 	lui	a3,0x47
  40493c:	24e75850 	addiu	a3,a3,22608
  404940:	8e060000 	lw	a2,0(s0)
  404944:	8e050004 	lw	a1,4(s0)
  404948:	8e040008 	lw	a0,8(s0)
  40494c:	3c030047 	lui	v1,0x47
  404950:	afa70010 	sw	a3,16(sp)
  404954:	240700ec 	li	a3,236
  404958:	24635d30 	addiu	v1,v1,23856
  40495c:	afa70014 	sw	a3,20(sp)
  404960:	3c070047 	lui	a3,0x47
  404964:	afa30018 	sw	v1,24(sp)
  404968:	1000ffe4 	b	4048fc <_init+0x3210>
  40496c:	24e759a0 	addiu	a3,a3,22944
  404970:	27bdff98 	addiu	sp,sp,-104
  404974:	afb10058 	sw	s1,88(sp)
  404978:	00808821 	move	s1,a0
  40497c:	afb00054 	sw	s0,84(sp)
  404980:	8c840000 	lw	a0,0(a0)
  404984:	00a08021 	move	s0,a1
  404988:	8e250004 	lw	a1,4(s1)
  40498c:	afbf0064 	sw	ra,100(sp)
  404990:	afb2005c 	sw	s2,92(sp)
  404994:	0c10f1e1 	jal	43c784 <_init+0x3b098>
  404998:	afb30060 	sw	s3,96(sp)
  40499c:	8e040000 	lw	a0,0(s0)
  4049a0:	8e050004 	lw	a1,4(s0)
  4049a4:	0c10f1e1 	jal	43c784 <_init+0x3b098>
  4049a8:	00409021 	move	s2,v0
  4049ac:	1240004c 	beqz	s2,404ae0 <_init+0x33f4>
  4049b0:	00000000 	nop
  4049b4:	1040002e 	beqz	v0,404a70 <_init+0x3384>
  4049b8:	00000000 	nop
  4049bc:	0c11ca4c 	jal	472930 <_init+0x71244>
  4049c0:	00409821 	move	s3,v0
  4049c4:	00402821 	move	a1,v0
  4049c8:	3c020047 	lui	v0,0x47
  4049cc:	24425850 	addiu	v0,v0,22608
  4049d0:	8e0d0000 	lw	t5,0(s0)
  4049d4:	8e0c0004 	lw	t4,4(s0)
  4049d8:	8e0b0008 	lw	t3,8(s0)
  4049dc:	8e2a0000 	lw	t2,0(s1)
  4049e0:	8e290004 	lw	t1,4(s1)
  4049e4:	8e280008 	lw	t0,8(s1)
  4049e8:	afa20010 	sw	v0,16(sp)
  4049ec:	2402011c 	li	v0,284
  4049f0:	afa20014 	sw	v0,20(sp)
  4049f4:	3c030047 	lui	v1,0x47
  4049f8:	3c020047 	lui	v0,0x47
  4049fc:	24635d3c 	addiu	v1,v1,23868
  404a00:	24425a4c 	addiu	v0,v0,23116
  404a04:	3c070047 	lui	a3,0x47
  404a08:	afa2001c 	sw	v0,28(sp)
  404a0c:	24040003 	li	a0,3
  404a10:	24060002 	li	a2,2
  404a14:	24e75688 	addiu	a3,a3,22152
  404a18:	afa30018 	sw	v1,24(sp)
  404a1c:	afa30020 	sw	v1,32(sp)
  404a20:	afad0028 	sw	t5,40(sp)
  404a24:	afac002c 	sw	t4,44(sp)
  404a28:	afab0030 	sw	t3,48(sp)
  404a2c:	afaa0038 	sw	t2,56(sp)
  404a30:	afa9003c 	sw	t1,60(sp)
  404a34:	afa80040 	sw	t0,64(sp)
  404a38:	afb30024 	sw	s3,36(sp)
  404a3c:	0c11cb29 	jal	472ca4 <_init+0x715b8>
  404a40:	afb20034 	sw	s2,52(sp)
  404a44:	02402021 	move	a0,s2
  404a48:	0c10f0b1 	jal	43c2c4 <_init+0x3abd8>
  404a4c:	02602821 	move	a1,s3
  404a50:	00001021 	move	v0,zero
  404a54:	8fbf0064 	lw	ra,100(sp)
  404a58:	8fb30060 	lw	s3,96(sp)
  404a5c:	8fb2005c 	lw	s2,92(sp)
  404a60:	8fb10058 	lw	s1,88(sp)
  404a64:	8fb00054 	lw	s0,84(sp)
  404a68:	03e00008 	jr	ra
  404a6c:	27bd0068 	addiu	sp,sp,104
  404a70:	0c11ca4c 	jal	472930 <_init+0x71244>
  404a74:	00000000 	nop
  404a78:	3c070047 	lui	a3,0x47
  404a7c:	24e75850 	addiu	a3,a3,22608
  404a80:	8e060000 	lw	a2,0(s0)
  404a84:	8e050004 	lw	a1,4(s0)
  404a88:	8e040008 	lw	a0,8(s0)
  404a8c:	3c030047 	lui	v1,0x47
  404a90:	afa70010 	sw	a3,16(sp)
  404a94:	24070116 	li	a3,278
  404a98:	24635d3c 	addiu	v1,v1,23868
  404a9c:	afa70014 	sw	a3,20(sp)
  404aa0:	3c070047 	lui	a3,0x47
  404aa4:	afa30018 	sw	v1,24(sp)
  404aa8:	24e759cc 	addiu	a3,a3,22988
  404aac:	afa7001c 	sw	a3,28(sp)
  404ab0:	3c070047 	lui	a3,0x47
  404ab4:	afa60024 	sw	a2,36(sp)
  404ab8:	afa50028 	sw	a1,40(sp)
  404abc:	afa4002c 	sw	a0,44(sp)
  404ac0:	00402821 	move	a1,v0
  404ac4:	afa30020 	sw	v1,32(sp)
  404ac8:	24040006 	li	a0,6
  404acc:	24060002 	li	a2,2
  404ad0:	0c11cb29 	jal	472ca4 <_init+0x715b8>
  404ad4:	24e75688 	addiu	a3,a3,22152
  404ad8:	1000ffde 	b	404a54 <_init+0x3368>
  404adc:	2402ffff 	li	v0,-1
  404ae0:	0c11ca4c 	jal	472930 <_init+0x71244>
  404ae4:	00000000 	nop
  404ae8:	3c070047 	lui	a3,0x47
  404aec:	24e75850 	addiu	a3,a3,22608
  404af0:	8e260000 	lw	a2,0(s1)
  404af4:	8e250004 	lw	a1,4(s1)
  404af8:	8e240008 	lw	a0,8(s1)
  404afc:	3c030047 	lui	v1,0x47
  404b00:	afa70010 	sw	a3,16(sp)
  404b04:	24070110 	li	a3,272
  404b08:	24635d3c 	addiu	v1,v1,23868
  404b0c:	afa70014 	sw	a3,20(sp)
  404b10:	3c070047 	lui	a3,0x47
  404b14:	afa30018 	sw	v1,24(sp)
  404b18:	1000ffe4 	b	404aac <_init+0x33c0>
  404b1c:	24e759a0 	addiu	a3,a3,22944
  404b20:	27bdffc0 	addiu	sp,sp,-64
  404b24:	00801021 	move	v0,a0
  404b28:	8c840000 	lw	a0,0(a0)
  404b2c:	afb10038 	sw	s1,56(sp)
  404b30:	00a08821 	move	s1,a1
  404b34:	8c450004 	lw	a1,4(v0)
  404b38:	afbf003c 	sw	ra,60(sp)
  404b3c:	0c10f1e1 	jal	43c784 <_init+0x3b098>
  404b40:	afb00034 	sw	s0,52(sp)
  404b44:	10400035 	beqz	v0,404c1c <_init+0x3530>
  404b48:	00000000 	nop
  404b4c:	8c440010 	lw	a0,16(v0)
  404b50:	1080001b 	beqz	a0,404bc0 <_init+0x34d4>
  404b54:	00408021 	move	s0,v0
  404b58:	8c82003c 	lw	v0,60(a0)
  404b5c:	1840000d 	blez	v0,404b94 <_init+0x34a8>
  404b60:	2403ffff 	li	v1,-1
  404b64:	8c830014 	lw	v1,20(a0)
  404b68:	12030013 	beq	s0,v1,404bb8 <_init+0x34cc>
  404b6c:	00803021 	move	a2,a0
  404b70:	10000004 	b	404b84 <_init+0x3498>
  404b74:	00001821 	move	v1,zero
  404b78:	8cc70014 	lw	a3,20(a2)
  404b7c:	12070006 	beq	s0,a3,404b98 <_init+0x34ac>
  404b80:	02202821 	move	a1,s1
  404b84:	24630001 	addiu	v1,v1,1
  404b88:	1462fffb 	bne	v1,v0,404b78 <_init+0x348c>
  404b8c:	24c60008 	addiu	a2,a2,8
  404b90:	2403ffff 	li	v1,-1
  404b94:	02202821 	move	a1,s1
  404b98:	ae230008 	sw	v1,8(s1)
  404b9c:	0c10f1eb 	jal	43c7ac <_init+0x3b0c0>
  404ba0:	26260004 	addiu	a2,s1,4
  404ba4:	8fbf003c 	lw	ra,60(sp)
  404ba8:	8fb10038 	lw	s1,56(sp)
  404bac:	8fb00034 	lw	s0,52(sp)
  404bb0:	03e00008 	jr	ra
  404bb4:	27bd0040 	addiu	sp,sp,64
  404bb8:	1000fff6 	b	404b94 <_init+0x34a8>
  404bbc:	00001821 	move	v1,zero
  404bc0:	0c11ca4c 	jal	472930 <_init+0x71244>
  404bc4:	00000000 	nop
  404bc8:	3c040047 	lui	a0,0x47
  404bcc:	24845850 	addiu	a0,a0,22608
  404bd0:	afa40010 	sw	a0,16(sp)
  404bd4:	2404012f 	li	a0,303
  404bd8:	afa40014 	sw	a0,20(sp)
  404bdc:	3c030047 	lui	v1,0x47
  404be0:	3c040047 	lui	a0,0x47
  404be4:	24635d4c 	addiu	v1,v1,23884
  404be8:	24845aa8 	addiu	a0,a0,23208
  404bec:	3c070047 	lui	a3,0x47
  404bf0:	afa4001c 	sw	a0,28(sp)
  404bf4:	00402821 	move	a1,v0
  404bf8:	afa30018 	sw	v1,24(sp)
  404bfc:	afa30020 	sw	v1,32(sp)
  404c00:	afb00024 	sw	s0,36(sp)
  404c04:	24040006 	li	a0,6
  404c08:	24060002 	li	a2,2
  404c0c:	0c11cb29 	jal	472ca4 <_init+0x715b8>
  404c10:	24e75688 	addiu	a3,a3,22152
  404c14:	1000ffe3 	b	404ba4 <_init+0x34b8>
  404c18:	2402ffff 	li	v0,-1
  404c1c:	0c11ca4c 	jal	472930 <_init+0x71244>
  404c20:	00000000 	nop
  404c24:	3c040047 	lui	a0,0x47
  404c28:	24845850 	addiu	a0,a0,22608
  404c2c:	afa40010 	sw	a0,16(sp)
  404c30:	24040128 	li	a0,296
  404c34:	afa40014 	sw	a0,20(sp)
  404c38:	3c030047 	lui	v1,0x47
  404c3c:	3c040047 	lui	a0,0x47
  404c40:	24635d4c 	addiu	v1,v1,23884
  404c44:	24845a84 	addiu	a0,a0,23172
  404c48:	3c070047 	lui	a3,0x47
  404c4c:	afa4001c 	sw	a0,28(sp)
  404c50:	00402821 	move	a1,v0
  404c54:	afa30018 	sw	v1,24(sp)
  404c58:	afa30020 	sw	v1,32(sp)
  404c5c:	24040006 	li	a0,6
  404c60:	24060002 	li	a2,2
  404c64:	0c11cb29 	jal	472ca4 <_init+0x715b8>
  404c68:	24e75688 	addiu	a3,a3,22152
  404c6c:	1000ffcd 	b	404ba4 <_init+0x34b8>
  404c70:	2402ffff 	li	v0,-1
  404c74:	27bdffb0 	addiu	sp,sp,-80
  404c78:	afb10044 	sw	s1,68(sp)
  404c7c:	00a08821 	move	s1,a1
  404c80:	afb20048 	sw	s2,72(sp)
  404c84:	27a50030 	addiu	a1,sp,48
  404c88:	00809021 	move	s2,a0
  404c8c:	afb00040 	sw	s0,64(sp)
  404c90:	afbf004c 	sw	ra,76(sp)
  404c94:	0c1012c8 	jal	404b20 <_init+0x3434>
  404c98:	02202021 	move	a0,s1
  404c9c:	04400016 	bltz	v0,404cf8 <_init+0x360c>
  404ca0:	00408021 	move	s0,v0
  404ca4:	27a40030 	addiu	a0,sp,48
  404ca8:	0c10125c 	jal	404970 <_init+0x3284>
  404cac:	02202821 	move	a1,s1
  404cb0:	04400011 	bltz	v0,404cf8 <_init+0x360c>
  404cb4:	00408021 	move	s0,v0
  404cb8:	27a40030 	addiu	a0,sp,48
  404cbc:	0c1011cc 	jal	404730 <_init+0x3044>
  404cc0:	02402821 	move	a1,s2
  404cc4:	04400009 	bltz	v0,404cec <_init+0x3600>
  404cc8:	00408021 	move	s0,v0
  404ccc:	02402021 	move	a0,s2
  404cd0:	0c1011cc 	jal	404730 <_init+0x3044>
  404cd4:	02202821 	move	a1,s1
  404cd8:	04410020 	bgez	v0,404d5c <_init+0x3670>
  404cdc:	00408021 	move	s0,v0
  404ce0:	27a40030 	addiu	a0,sp,48
  404ce4:	0c10125c 	jal	404970 <_init+0x3284>
  404ce8:	02402821 	move	a1,s2
  404cec:	27a40030 	addiu	a0,sp,48
  404cf0:	0c1011cc 	jal	404730 <_init+0x3044>
  404cf4:	02202821 	move	a1,s1
  404cf8:	0c11ca4c 	jal	472930 <_init+0x71244>
  404cfc:	00000000 	nop
  404d00:	8e240000 	lw	a0,0(s1)
  404d04:	8e250004 	lw	a1,4(s1)
  404d08:	0c10f1e1 	jal	43c784 <_init+0x3b098>
  404d0c:	00408821 	move	s1,v0
  404d10:	3c040047 	lui	a0,0x47
  404d14:	24845850 	addiu	a0,a0,22608
  404d18:	afa40010 	sw	a0,16(sp)
  404d1c:	24040156 	li	a0,342
  404d20:	afa40014 	sw	a0,20(sp)
  404d24:	3c030047 	lui	v1,0x47
  404d28:	3c040047 	lui	a0,0x47
  404d2c:	24635d60 	addiu	v1,v1,23904
  404d30:	24845adc 	addiu	a0,a0,23260
  404d34:	3c070047 	lui	a3,0x47
  404d38:	afa4001c 	sw	a0,28(sp)
  404d3c:	afa30018 	sw	v1,24(sp)
  404d40:	afa30020 	sw	v1,32(sp)
  404d44:	afa20024 	sw	v0,36(sp)
  404d48:	24040006 	li	a0,6
  404d4c:	02202821 	move	a1,s1
  404d50:	24060002 	li	a2,2
  404d54:	0c11cb29 	jal	472ca4 <_init+0x715b8>
  404d58:	24e75688 	addiu	a3,a3,22152
  404d5c:	8fbf004c 	lw	ra,76(sp)
  404d60:	02001021 	move	v0,s0
  404d64:	8fb20048 	lw	s2,72(sp)
  404d68:	8fb10044 	lw	s1,68(sp)
  404d6c:	8fb00040 	lw	s0,64(sp)
  404d70:	03e00008 	jr	ra
  404d74:	27bd0050 	addiu	sp,sp,80
  404d78:	27bdffb0 	addiu	sp,sp,-80
  404d7c:	afb10044 	sw	s1,68(sp)
  404d80:	00a08821 	move	s1,a1
  404d84:	27a50030 	addiu	a1,sp,48
  404d88:	afb20048 	sw	s2,72(sp)
  404d8c:	afb00040 	sw	s0,64(sp)
  404d90:	afbf004c 	sw	ra,76(sp)
  404d94:	0c1012c8 	jal	404b20 <_init+0x3434>
  404d98:	00809021 	move	s2,a0
  404d9c:	04400016 	bltz	v0,404df8 <_init+0x370c>
  404da0:	00408021 	move	s0,v0
  404da4:	27a40030 	addiu	a0,sp,48
  404da8:	0c10125c 	jal	404970 <_init+0x3284>
  404dac:	02402821 	move	a1,s2
  404db0:	04400011 	bltz	v0,404df8 <_init+0x370c>
  404db4:	00408021 	move	s0,v0
  404db8:	02402021 	move	a0,s2
  404dbc:	0c10125c 	jal	404970 <_init+0x3284>
  404dc0:	02202821 	move	a1,s1
  404dc4:	04400009 	bltz	v0,404dec <_init+0x3700>
  404dc8:	00408021 	move	s0,v0
  404dcc:	27a40030 	addiu	a0,sp,48
  404dd0:	0c1011cc 	jal	404730 <_init+0x3044>
  404dd4:	02202821 	move	a1,s1
  404dd8:	04410020 	bgez	v0,404e5c <_init+0x3770>
  404ddc:	00408021 	move	s0,v0
  404de0:	02402021 	move	a0,s2
  404de4:	0c1011cc 	jal	404730 <_init+0x3044>
  404de8:	02202821 	move	a1,s1
  404dec:	27a40030 	addiu	a0,sp,48
  404df0:	0c1011cc 	jal	404730 <_init+0x3044>
  404df4:	02402821 	move	a1,s2
  404df8:	0c11ca4c 	jal	472930 <_init+0x71244>
  404dfc:	00000000 	nop
  404e00:	8e240000 	lw	a0,0(s1)
  404e04:	8e250004 	lw	a1,4(s1)
  404e08:	0c10f1e1 	jal	43c784 <_init+0x3b098>
  404e0c:	00408821 	move	s1,v0
  404e10:	3c040047 	lui	a0,0x47
  404e14:	24845850 	addiu	a0,a0,22608
  404e18:	afa40010 	sw	a0,16(sp)
  404e1c:	24040176 	li	a0,374
  404e20:	afa40014 	sw	a0,20(sp)
  404e24:	3c030047 	lui	v1,0x47
  404e28:	3c040047 	lui	a0,0x47
  404e2c:	24635d70 	addiu	v1,v1,23920
  404e30:	24845afc 	addiu	a0,a0,23292
  404e34:	3c070047 	lui	a3,0x47
  404e38:	afa4001c 	sw	a0,28(sp)
  404e3c:	afa30018 	sw	v1,24(sp)
  404e40:	afa30020 	sw	v1,32(sp)
  404e44:	afa20024 	sw	v0,36(sp)
  404e48:	24040006 	li	a0,6
  404e4c:	02202821 	move	a1,s1
  404e50:	24060002 	li	a2,2
  404e54:	0c11cb29 	jal	472ca4 <_init+0x715b8>
  404e58:	24e75688 	addiu	a3,a3,22152
  404e5c:	8fbf004c 	lw	ra,76(sp)
  404e60:	02001021 	move	v0,s0
  404e64:	8fb20048 	lw	s2,72(sp)
  404e68:	8fb10044 	lw	s1,68(sp)
  404e6c:	8fb00040 	lw	s0,64(sp)
  404e70:	03e00008 	jr	ra
  404e74:	27bd0050 	addiu	sp,sp,80
  404e78:	27bdffa0 	addiu	sp,sp,-96
  404e7c:	afbe0058 	sw	s8,88(sp)
  404e80:	afb60050 	sw	s6,80(sp)
  404e84:	afb40048 	sw	s4,72(sp)
  404e88:	afb30044 	sw	s3,68(sp)
  404e8c:	3c1e0047 	lui	s8,0x47
  404e90:	3c140047 	lui	s4,0x47
  404e94:	3c130047 	lui	s3,0x47
  404e98:	3c160047 	lui	s6,0x47
  404e9c:	afb70054 	sw	s7,84(sp)
  404ea0:	afb5004c 	sw	s5,76(sp)
  404ea4:	afb20040 	sw	s2,64(sp)
  404ea8:	afbf005c 	sw	ra,92(sp)
  404eac:	afb1003c 	sw	s1,60(sp)
  404eb0:	afb00038 	sw	s0,56(sp)
  404eb4:	00009021 	move	s2,zero
  404eb8:	26945850 	addiu	s4,s4,22608
  404ebc:	26735d80 	addiu	s3,s3,23936
  404ec0:	2417019a 	li	s7,410
  404ec4:	26d65b1c 	addiu	s6,s6,23324
  404ec8:	27d55688 	addiu	s5,s8,22152
  404ecc:	00008021 	move	s0,zero
  404ed0:	02002821 	move	a1,s0
  404ed4:	0c10f1e1 	jal	43c784 <_init+0x3b098>
  404ed8:	02402021 	move	a0,s2
  404edc:	10400015 	beqz	v0,404f34 <_init+0x3848>
  404ee0:	00408821 	move	s1,v0
  404ee4:	0c11ca4c 	jal	472930 <_init+0x71244>
  404ee8:	00000000 	nop
  404eec:	00402821 	move	a1,v0
  404ef0:	afb00028 	sw	s0,40(sp)
  404ef4:	afb40010 	sw	s4,16(sp)
  404ef8:	afb70014 	sw	s7,20(sp)
  404efc:	afb30018 	sw	s3,24(sp)
  404f00:	afb6001c 	sw	s6,28(sp)
  404f04:	afb10020 	sw	s1,32(sp)
  404f08:	afb20024 	sw	s2,36(sp)
  404f0c:	24040004 	li	a0,4
  404f10:	24060002 	li	a2,2
  404f14:	0c11cb29 	jal	472ca4 <_init+0x715b8>
  404f18:	02a03821 	move	a3,s5
  404f1c:	8e22003c 	lw	v0,60(s1)
  404f20:	18400004 	blez	v0,404f34 <_init+0x3848>
  404f24:	00000000 	nop
  404f28:	8e220010 	lw	v0,16(s1)
  404f2c:	10400025 	beqz	v0,404fc4 <_init+0x38d8>
  404f30:	00000000 	nop
  404f34:	26100001 	addiu	s0,s0,1
  404f38:	24020006 	li	v0,6
  404f3c:	1602ffe5 	bne	s0,v0,404ed4 <_init+0x37e8>
  404f40:	02002821 	move	a1,s0
  404f44:	26520001 	addiu	s2,s2,1
  404f48:	24020018 	li	v0,24
  404f4c:	1642ffe0 	bne	s2,v0,404ed0 <_init+0x37e4>
  404f50:	00008021 	move	s0,zero
  404f54:	0c11ca4c 	jal	472930 <_init+0x71244>
  404f58:	00000000 	nop
  404f5c:	240301a5 	li	v1,421
  404f60:	afa30014 	sw	v1,20(sp)
  404f64:	3c030047 	lui	v1,0x47
  404f68:	24635b34 	addiu	v1,v1,23348
  404f6c:	afb40010 	sw	s4,16(sp)
  404f70:	afb30018 	sw	s3,24(sp)
  404f74:	afa3001c 	sw	v1,28(sp)
  404f78:	afb30020 	sw	s3,32(sp)
  404f7c:	00402821 	move	a1,v0
  404f80:	27c75688 	addiu	a3,s8,22152
  404f84:	24040006 	li	a0,6
  404f88:	0c11cb29 	jal	472ca4 <_init+0x715b8>
  404f8c:	24060002 	li	a2,2
  404f90:	8fbf005c 	lw	ra,92(sp)
  404f94:	8fbe0058 	lw	s8,88(sp)
  404f98:	8fb70054 	lw	s7,84(sp)
  404f9c:	8fb60050 	lw	s6,80(sp)
  404fa0:	8fb5004c 	lw	s5,76(sp)
  404fa4:	8fb40048 	lw	s4,72(sp)
  404fa8:	8fb30044 	lw	s3,68(sp)
  404fac:	8fb20040 	lw	s2,64(sp)
  404fb0:	8fb1003c 	lw	s1,60(sp)
  404fb4:	8fb00038 	lw	s0,56(sp)
  404fb8:	2402ffff 	li	v0,-1
  404fbc:	03e00008 	jr	ra
  404fc0:	27bd0060 	addiu	sp,sp,96
  404fc4:	0c11ca4c 	jal	472930 <_init+0x71244>
  404fc8:	00000000 	nop
  404fcc:	00402821 	move	a1,v0
  404fd0:	240201a9 	li	v0,425
  404fd4:	afa20014 	sw	v0,20(sp)
  404fd8:	3c020047 	lui	v0,0x47
  404fdc:	24425b54 	addiu	v0,v0,23380
  404fe0:	02a03821 	move	a3,s5
  404fe4:	afa2001c 	sw	v0,28(sp)
  404fe8:	24060002 	li	a2,2
  404fec:	afb40010 	sw	s4,16(sp)
  404ff0:	afb30018 	sw	s3,24(sp)
  404ff4:	afb10020 	sw	s1,32(sp)
  404ff8:	afb20024 	sw	s2,36(sp)
  404ffc:	afb00028 	sw	s0,40(sp)
  405000:	0c11cb29 	jal	472ca4 <_init+0x715b8>
  405004:	24040004 	li	a0,4
  405008:	02202021 	move	a0,s1
  40500c:	0c1010b1 	jal	4042c4 <_init+0x2bd8>
  405010:	00002821 	move	a1,zero
  405014:	8fbf005c 	lw	ra,92(sp)
  405018:	8fbe0058 	lw	s8,88(sp)
  40501c:	8fb70054 	lw	s7,84(sp)
  405020:	8fb60050 	lw	s6,80(sp)
  405024:	8fb5004c 	lw	s5,76(sp)
  405028:	8fb40048 	lw	s4,72(sp)
  40502c:	8fb30044 	lw	s3,68(sp)
  405030:	8fb20040 	lw	s2,64(sp)
  405034:	8fb1003c 	lw	s1,60(sp)
  405038:	8fb00038 	lw	s0,56(sp)
  40503c:	00001021 	move	v0,zero
  405040:	03e00008 	jr	ra
  405044:	27bd0060 	addiu	sp,sp,96
  405048:	2c820024 	sltiu	v0,a0,36
  40504c:	10400006 	beqz	v0,405068 <_init+0x397c>
  405050:	00042080 	sll	a0,a0,0x2
  405054:	3c020047 	lui	v0,0x47
  405058:	24425da4 	addiu	v0,v0,23972
  40505c:	00822021 	addu	a0,a0,v0
  405060:	03e00008 	jr	ra
  405064:	8c820000 	lw	v0,0(a0)
  405068:	03e00008 	jr	ra
  40506c:	00001021 	move	v0,zero
  405070:	27bdffe0 	addiu	sp,sp,-32
  405074:	afbf001c 	sw	ra,28(sp)
  405078:	0c12590c 	jal	496430 <syscall@plt>
  40507c:	2404107e 	li	a0,4222
  405080:	8fbf001c 	lw	ra,28(sp)
  405084:	03e00008 	jr	ra
  405088:	27bd0020 	addiu	sp,sp,32
  40508c:	08101028 	j	4040a0 <_init+0x29b4>
  405090:	00003021 	move	a2,zero
  405094:	27bdffe0 	addiu	sp,sp,-32
  405098:	24060001 	li	a2,1
  40509c:	afa50024 	sw	a1,36(sp)
  4050a0:	afbf001c 	sw	ra,28(sp)
  4050a4:	0c101028 	jal	4040a0 <_init+0x29b4>
  4050a8:	27a50024 	addiu	a1,sp,36
  4050ac:	8fbf001c 	lw	ra,28(sp)
  4050b0:	03e00008 	jr	ra
  4050b4:	27bd0020 	addiu	sp,sp,32
  4050b8:	08101028 	j	4040a0 <_init+0x29b4>
  4050bc:	00003021 	move	a2,zero
  4050c0:	27bdffc0 	addiu	sp,sp,-64
  4050c4:	afb00034 	sw	s0,52(sp)
  4050c8:	3c10004b 	lui	s0,0x4b
  4050cc:	8e03f5c0 	lw	v1,-2624(s0)
  4050d0:	2402ffff 	li	v0,-1
  4050d4:	afbf003c 	sw	ra,60(sp)
  4050d8:	1062002f 	beq	v1,v0,405198 <_init+0x3aac>
  4050dc:	afb10038 	sw	s1,56(sp)
  4050e0:	3c11004b 	lui	s1,0x4b
  4050e4:	8e23f5c4 	lw	v1,-2620(s1)
  4050e8:	2402ffff 	li	v0,-1
  4050ec:	10620036 	beq	v1,v0,4051c8 <_init+0x3adc>
  4050f0:	3c041000 	lui	a0,0x1000
  4050f4:	8e02f5c0 	lw	v0,-2624(s0)
  4050f8:	24040001 	li	a0,1
  4050fc:	00021f02 	srl	v1,v0,0x1c
  405100:	1464001f 	bne	v1,a0,405180 <_init+0x3a94>
  405104:	7c427b00 	ext	v0,v0,0xc,0x10
  405108:	24040005 	li	a0,5
  40510c:	1044000e 	beq	v0,a0,405148 <_init+0x3a5c>
  405110:	24042000 	li	a0,8192
  405114:	1444001a 	bne	v0,a0,405180 <_init+0x3a94>
  405118:	9224f5c4 	lbu	a0,-2620(s1)
  40511c:	10830005 	beq	a0,v1,405134 <_init+0x3a48>
  405120:	24020003 	li	v0,3
  405124:	24020004 	li	v0,4
  405128:	38840010 	xori	a0,a0,0x10
  40512c:	2403ffff 	li	v1,-1
  405130:	0064100b 	movn	v0,v1,a0
  405134:	8fbf003c 	lw	ra,60(sp)
  405138:	8fb10038 	lw	s1,56(sp)
  40513c:	8fb00034 	lw	s0,52(sp)
  405140:	03e00008 	jr	ra
  405144:	27bd0040 	addiu	sp,sp,64
  405148:	9224f5c4 	lbu	a0,-2620(s1)
  40514c:	1083003a 	beq	a0,v1,405238 <_init+0x3b4c>
  405150:	00000000 	nop
  405154:	1080fff7 	beqz	a0,405134 <_init+0x3a48>
  405158:	24020001 	li	v0,1
  40515c:	8fbf003c 	lw	ra,60(sp)
  405160:	38840010 	xori	a0,a0,0x10
  405164:	2403ffff 	li	v1,-1
  405168:	24020002 	li	v0,2
  40516c:	8fb10038 	lw	s1,56(sp)
  405170:	8fb00034 	lw	s0,52(sp)
  405174:	0064100b 	movn	v0,v1,a0
  405178:	03e00008 	jr	ra
  40517c:	27bd0040 	addiu	sp,sp,64
  405180:	8fbf003c 	lw	ra,60(sp)
  405184:	8fb10038 	lw	s1,56(sp)
  405188:	8fb00034 	lw	s0,52(sp)
  40518c:	2402ffff 	li	v0,-1
  405190:	03e00008 	jr	ra
  405194:	27bd0040 	addiu	sp,sp,64
  405198:	3c041300 	lui	a0,0x1300
  40519c:	2484002c 	addiu	a0,a0,44
  4051a0:	0c10142e 	jal	4050b8 <_init+0x39cc>
  4051a4:	2605f5c0 	addiu	a1,s0,-2624
  4051a8:	0441ffce 	bgez	v0,4050e4 <_init+0x39f8>
  4051ac:	3c11004b 	lui	s1,0x4b
  4051b0:	0c11ca4c 	jal	472930 <_init+0x71244>
  4051b4:	00000000 	nop
  4051b8:	3c040047 	lui	a0,0x47
  4051bc:	24845e3c 	addiu	a0,a0,24124
  4051c0:	1000000b 	b	4051f0 <_init+0x3b04>
  4051c4:	24030255 	li	v1,597
  4051c8:	24840034 	addiu	a0,a0,52
  4051cc:	0c10142e 	jal	4050b8 <_init+0x39cc>
  4051d0:	2625f5c4 	addiu	a1,s1,-2620
  4051d4:	0441ffc7 	bgez	v0,4050f4 <_init+0x3a08>
  4051d8:	00000000 	nop
  4051dc:	0c11ca4c 	jal	472930 <_init+0x71244>
  4051e0:	00000000 	nop
  4051e4:	3c040047 	lui	a0,0x47
  4051e8:	24845e3c 	addiu	a0,a0,24124
  4051ec:	2403025d 	li	v1,605
  4051f0:	3c050047 	lui	a1,0x47
  4051f4:	24a55850 	addiu	a1,a1,22608
  4051f8:	afa50010 	sw	a1,16(sp)
  4051fc:	3c050047 	lui	a1,0x47
  405200:	24a55b68 	addiu	a1,a1,23400
  405204:	3c070047 	lui	a3,0x47
  405208:	afa40018 	sw	a0,24(sp)
  40520c:	afa5001c 	sw	a1,28(sp)
  405210:	afa40020 	sw	a0,32(sp)
  405214:	00402821 	move	a1,v0
  405218:	afa30014 	sw	v1,20(sp)
  40521c:	afa30024 	sw	v1,36(sp)
  405220:	24040006 	li	a0,6
  405224:	24060002 	li	a2,2
  405228:	0c11cb29 	jal	472ca4 <_init+0x715b8>
  40522c:	24e75688 	addiu	a3,a3,22152
  405230:	1000ffc0 	b	405134 <_init+0x3a48>
  405234:	2402ffff 	li	v0,-1
  405238:	1000ffbe 	b	405134 <_init+0x3a48>
  40523c:	00001021 	move	v0,zero
  405240:	27bdffa8 	addiu	sp,sp,-88
  405244:	afbf0054 	sw	ra,84(sp)
  405248:	afbe0050 	sw	s8,80(sp)
  40524c:	afb7004c 	sw	s7,76(sp)
  405250:	afb60048 	sw	s6,72(sp)
  405254:	afb50044 	sw	s5,68(sp)
  405258:	afb40040 	sw	s4,64(sp)
  40525c:	afb3003c 	sw	s3,60(sp)
  405260:	afb20038 	sw	s2,56(sp)
  405264:	afb10034 	sw	s1,52(sp)
  405268:	0c11ca4c 	jal	472930 <_init+0x71244>
  40526c:	afb00030 	sw	s0,48(sp)
  405270:	00402821 	move	a1,v0
  405274:	2402009b 	li	v0,155
  405278:	afa20014 	sw	v0,20(sp)
  40527c:	3c120047 	lui	s2,0x47
  405280:	3c130047 	lui	s3,0x47
  405284:	3c020049 	lui	v0,0x49
  405288:	2442cbd4 	addiu	v0,v0,-13356
  40528c:	26525d0c 	addiu	s2,s2,23820
  405290:	26735850 	addiu	s3,s3,22608
  405294:	3c140047 	lui	s4,0x47
  405298:	24040003 	li	a0,3
  40529c:	24060002 	li	a2,2
  4052a0:	26875688 	addiu	a3,s4,22152
  4052a4:	afa2001c 	sw	v0,28(sp)
  4052a8:	afb30010 	sw	s3,16(sp)
  4052ac:	afb20018 	sw	s2,24(sp)
  4052b0:	0c11cb29 	jal	472ca4 <_init+0x715b8>
  4052b4:	afb20020 	sw	s2,32(sp)
  4052b8:	0c101430 	jal	4050c0 <_init+0x39d4>
  4052bc:	241e0001 	li	s8,1
  4052c0:	005ef004 	sllv	s8,s8,v0
  4052c4:	3c10004b 	lui	s0,0x4b
  4052c8:	3c160047 	lui	s6,0x47
  4052cc:	3c15004b 	lui	s5,0x4b
  4052d0:	001ebfc3 	sra	s7,s8,0x1f
  4052d4:	2610f498 	addiu	s0,s0,-2920
  4052d8:	00008821 	move	s1,zero
  4052dc:	26d65b84 	addiu	s6,s6,23428
  4052e0:	10000004 	b	4052f4 <_init+0x3c08>
  4052e4:	26b5f470 	addiu	s5,s5,-2960
  4052e8:	26310001 	addiu	s1,s1,1
  4052ec:	12230020 	beq	s1,v1,405370 <_init+0x3c84>
  4052f0:	26100030 	addiu	s0,s0,48
  4052f4:	8e040000 	lw	a0,0(s0)
  4052f8:	8e030004 	lw	v1,4(s0)
  4052fc:	009e2024 	and	a0,a0,s8
  405300:	00771824 	and	v1,v1,s7
  405304:	00831825 	or	v1,a0,v1
  405308:	1060fff7 	beqz	v1,4052e8 <_init+0x3bfc>
  40530c:	24030007 	li	v1,7
  405310:	0c11ca4c 	jal	472930 <_init+0x71244>
  405314:	00000000 	nop
  405318:	00112180 	sll	a0,s1,0x6
  40531c:	00111900 	sll	v1,s1,0x4
  405320:	00831823 	subu	v1,a0,v1
  405324:	02a31821 	addu	v1,s5,v1
  405328:	00402821 	move	a1,v0
  40532c:	240200a0 	li	v0,160
  405330:	afa30020 	sw	v1,32(sp)
  405334:	24040003 	li	a0,3
  405338:	24060002 	li	a2,2
  40533c:	26875688 	addiu	a3,s4,22152
  405340:	afa20014 	sw	v0,20(sp)
  405344:	afb30010 	sw	s3,16(sp)
  405348:	afb20018 	sw	s2,24(sp)
  40534c:	0c11cb29 	jal	472ca4 <_init+0x715b8>
  405350:	afb6001c 	sw	s6,28(sp)
  405354:	8e19fffc 	lw	t9,-4(s0)
  405358:	26310001 	addiu	s1,s1,1
  40535c:	0320f809 	jalr	t9
  405360:	26100030 	addiu	s0,s0,48
  405364:	24030007 	li	v1,7
  405368:	1623ffe2 	bne	s1,v1,4052f4 <_init+0x3c08>
  40536c:	00000000 	nop
  405370:	8fbf0054 	lw	ra,84(sp)
  405374:	8fbe0050 	lw	s8,80(sp)
  405378:	8fb7004c 	lw	s7,76(sp)
  40537c:	8fb60048 	lw	s6,72(sp)
  405380:	8fb50044 	lw	s5,68(sp)
  405384:	8fb40040 	lw	s4,64(sp)
  405388:	8fb3003c 	lw	s3,60(sp)
  40538c:	8fb20038 	lw	s2,56(sp)
  405390:	8fb10034 	lw	s1,52(sp)
  405394:	8fb00030 	lw	s0,48(sp)
  405398:	00001021 	move	v0,zero
  40539c:	03e00008 	jr	ra
  4053a0:	27bd0058 	addiu	sp,sp,88
  4053a4:	27bdff90 	addiu	sp,sp,-112
  4053a8:	afbf006c 	sw	ra,108(sp)
  4053ac:	afb30054 	sw	s3,84(sp)
  4053b0:	afb20050 	sw	s2,80(sp)
  4053b4:	afbe0068 	sw	s8,104(sp)
  4053b8:	afb70064 	sw	s7,100(sp)
  4053bc:	afb60060 	sw	s6,96(sp)
  4053c0:	afb5005c 	sw	s5,92(sp)
  4053c4:	afb40058 	sw	s4,88(sp)
  4053c8:	afb1004c 	sw	s1,76(sp)
  4053cc:	0c11ca4c 	jal	472930 <_init+0x71244>
  4053d0:	afb00048 	sw	s0,72(sp)
  4053d4:	00402821 	move	a1,v0
  4053d8:	3c020047 	lui	v0,0x47
  4053dc:	24475688 	addiu	a3,v0,22152
  4053e0:	24020072 	li	v0,114
  4053e4:	afa20014 	sw	v0,20(sp)
  4053e8:	3c120047 	lui	s2,0x47
  4053ec:	3c130047 	lui	s3,0x47
  4053f0:	3c020047 	lui	v0,0x47
  4053f4:	24425a44 	addiu	v0,v0,23108
  4053f8:	26525d00 	addiu	s2,s2,23808
  4053fc:	26735850 	addiu	s3,s3,22608
  405400:	24040003 	li	a0,3
  405404:	24060002 	li	a2,2
  405408:	afa2001c 	sw	v0,28(sp)
  40540c:	afb30010 	sw	s3,16(sp)
  405410:	afb20018 	sw	s2,24(sp)
  405414:	0c11cb29 	jal	472ca4 <_init+0x715b8>
  405418:	afb20020 	sw	s2,32(sp)
  40541c:	24040004 	li	a0,4
  405420:	0c12595c 	jal	496570 <clock_gettime@plt>
  405424:	27a50030 	addiu	a1,sp,48
  405428:	04400076 	bltz	v0,405604 <_init+0x3f18>
  40542c:	8fa30034 	lw	v1,52(sp)
  405430:	00404821 	move	t1,v0
  405434:	3c021062 	lui	v0,0x1062
  405438:	24424dd3 	addiu	v0,v0,19923
  40543c:	00620018 	mult	v1,v0
  405440:	00031fc3 	sra	v1,v1,0x1f
  405444:	afa90040 	sw	t1,64(sp)
  405448:	24170001 	li	s7,1
  40544c:	3c10004b 	lui	s0,0x4b
  405450:	3c16004b 	lui	s6,0x4b
  405454:	3c150047 	lui	s5,0x47
  405458:	00008821 	move	s1,zero
  40545c:	2610f498 	addiu	s0,s0,-2920
  405460:	26d6f470 	addiu	s6,s6,-2960
  405464:	26b55b84 	addiu	s5,s5,23428
  405468:	00001010 	mfhi	v0
  40546c:	00021183 	sra	v0,v0,0x6
  405470:	00431023 	subu	v0,v0,v1
  405474:	00402021 	move	a0,v0
  405478:	8fa30030 	lw	v1,48(sp)
  40547c:	00022fc3 	sra	a1,v0,0x1f
  405480:	00800013 	mtlo	a0
  405484:	3c02000f 	lui	v0,0xf
  405488:	24424240 	addiu	v0,v0,16960
  40548c:	00a00011 	mthi	a1
  405490:	70620000 	madd	v1,v0
  405494:	3c02004b 	lui	v0,0x4b
  405498:	00003012 	mflo	a2
  40549c:	ac466cc0 	sw	a2,27840(v0)
  4054a0:	00003810 	mfhi	a3
  4054a4:	0c101430 	jal	4050c0 <_init+0x39d4>
  4054a8:	ac476cc4 	sw	a3,27844(v0)
  4054ac:	0057b804 	sllv	s7,s7,v0
  4054b0:	0017a7c3 	sra	s4,s7,0x1f
  4054b4:	10000005 	b	4054cc <_init+0x3de0>
  4054b8:	8fa90040 	lw	t1,64(sp)
  4054bc:	26310001 	addiu	s1,s1,1
  4054c0:	24030007 	li	v1,7
  4054c4:	1223003b 	beq	s1,v1,4055b4 <_init+0x3ec8>
  4054c8:	26100030 	addiu	s0,s0,48
  4054cc:	8e040000 	lw	a0,0(s0)
  4054d0:	8e030004 	lw	v1,4(s0)
  4054d4:	00972024 	and	a0,a0,s7
  4054d8:	00741824 	and	v1,v1,s4
  4054dc:	00831825 	or	v1,a0,v1
  4054e0:	1060fff6 	beqz	v1,4054bc <_init+0x3dd0>
  4054e4:	00000000 	nop
  4054e8:	0c11ca4c 	jal	472930 <_init+0x71244>
  4054ec:	0011f100 	sll	s8,s1,0x4
  4054f0:	00111980 	sll	v1,s1,0x6
  4054f4:	007ef023 	subu	s8,v1,s8
  4054f8:	00402821 	move	a1,v0
  4054fc:	3c020047 	lui	v0,0x47
  405500:	24475688 	addiu	a3,v0,22152
  405504:	02def021 	addu	s8,s6,s8
  405508:	24020082 	li	v0,130
  40550c:	24040003 	li	a0,3
  405510:	24060002 	li	a2,2
  405514:	afa20014 	sw	v0,20(sp)
  405518:	afb30010 	sw	s3,16(sp)
  40551c:	afb20018 	sw	s2,24(sp)
  405520:	afb5001c 	sw	s5,28(sp)
  405524:	0c11cb29 	jal	472ca4 <_init+0x715b8>
  405528:	afbe0020 	sw	s8,32(sp)
  40552c:	8e19fff8 	lw	t9,-8(s0)
  405530:	0320f809 	jalr	t9
  405534:	00000000 	nop
  405538:	0441ffe0 	bgez	v0,4054bc <_init+0x3dd0>
  40553c:	00404821 	move	t1,v0
  405540:	0c11ca4c 	jal	472930 <_init+0x71244>
  405544:	afa20040 	sw	v0,64(sp)
  405548:	24030086 	li	v1,134
  40554c:	afa30014 	sw	v1,20(sp)
  405550:	3c030047 	lui	v1,0x47
  405554:	24635ba4 	addiu	v1,v1,23460
  405558:	3c070047 	lui	a3,0x47
  40555c:	afb20018 	sw	s2,24(sp)
  405560:	afb30010 	sw	s3,16(sp)
  405564:	afa3001c 	sw	v1,28(sp)
  405568:	afbe0020 	sw	s8,32(sp)
  40556c:	24040006 	li	a0,6
  405570:	00402821 	move	a1,v0
  405574:	24060002 	li	a2,2
  405578:	24e75688 	addiu	a3,a3,22152
  40557c:	0c11cb29 	jal	472ca4 <_init+0x715b8>
  405580:	2630ffff 	addiu	s0,s1,-1
  405584:	2412ffff 	li	s2,-1
  405588:	1220000a 	beqz	s1,4055b4 <_init+0x3ec8>
  40558c:	8fa90040 	lw	t1,64(sp)
  405590:	8fc30028 	lw	v1,40(s8)
  405594:	8fc2002c 	lw	v0,44(s8)
  405598:	00771824 	and	v1,v1,s7
  40559c:	00541024 	and	v0,v0,s4
  4055a0:	00621025 	or	v0,v1,v0
  4055a4:	14400010 	bnez	v0,4055e8 <_init+0x3efc>
  4055a8:	2610ffff 	addiu	s0,s0,-1
  4055ac:	1612fff8 	bne	s0,s2,405590 <_init+0x3ea4>
  4055b0:	00000000 	nop
  4055b4:	8fbf006c 	lw	ra,108(sp)
  4055b8:	8fbe0068 	lw	s8,104(sp)
  4055bc:	8fb70064 	lw	s7,100(sp)
  4055c0:	8fb60060 	lw	s6,96(sp)
  4055c4:	8fb5005c 	lw	s5,92(sp)
  4055c8:	8fb40058 	lw	s4,88(sp)
  4055cc:	8fb30054 	lw	s3,84(sp)
  4055d0:	8fb20050 	lw	s2,80(sp)
  4055d4:	8fb1004c 	lw	s1,76(sp)
  4055d8:	8fb00048 	lw	s0,72(sp)
  4055dc:	01201021 	move	v0,t1
  4055e0:	03e00008 	jr	ra
  4055e4:	27bd0070 	addiu	sp,sp,112
  4055e8:	8fd90024 	lw	t9,36(s8)
  4055ec:	0320f809 	jalr	t9
  4055f0:	afa90040 	sw	t1,64(sp)
  4055f4:	1612ffe6 	bne	s0,s2,405590 <_init+0x3ea4>
  4055f8:	8fa90040 	lw	t1,64(sp)
  4055fc:	1000ffee 	b	4055b8 <_init+0x3ecc>
  405600:	8fbf006c 	lw	ra,108(sp)
  405604:	0c11ca4c 	jal	472930 <_init+0x71244>
  405608:	00000000 	nop
  40560c:	24030078 	li	v1,120
  405610:	afa30014 	sw	v1,20(sp)
  405614:	3c030047 	lui	v1,0x47
  405618:	24635b90 	addiu	v1,v1,23440
  40561c:	00402821 	move	a1,v0
  405620:	3c020047 	lui	v0,0x47
  405624:	2409ffff 	li	t1,-1
  405628:	afb30010 	sw	s3,16(sp)
  40562c:	afb20018 	sw	s2,24(sp)
  405630:	afa3001c 	sw	v1,28(sp)
  405634:	24040006 	li	a0,6
  405638:	24060002 	li	a2,2
  40563c:	24475688 	addiu	a3,v0,22152
  405640:	0c11cb29 	jal	472ca4 <_init+0x715b8>
  405644:	afa90040 	sw	t1,64(sp)
  405648:	1000ffda 	b	4055b4 <_init+0x3ec8>
  40564c:	8fa90040 	lw	t1,64(sp)
  405650:	27bdffe0 	addiu	sp,sp,-32
  405654:	afbf001c 	sw	ra,28(sp)
  405658:	0c100fc0 	jal	403f00 <_init+0x2814>
  40565c:	00000000 	nop
  405660:	1440000f 	bnez	v0,4056a0 <_init+0x3fb4>
  405664:	3c040047 	lui	a0,0x47
  405668:	0c101430 	jal	4050c0 <_init+0x39d4>
  40566c:	00000000 	nop
  405670:	1040000a 	beqz	v0,40569c <_init+0x3fb0>
  405674:	24030002 	li	v1,2
  405678:	10430008 	beq	v0,v1,40569c <_init+0x3fb0>
  40567c:	24030003 	li	v1,3
  405680:	10430006 	beq	v0,v1,40569c <_init+0x3fb0>
  405684:	24030004 	li	v1,4
  405688:	10430004 	beq	v0,v1,40569c <_init+0x3fb0>
  40568c:	8fbf001c 	lw	ra,28(sp)
  405690:	00001021 	move	v0,zero
  405694:	03e00008 	jr	ra
  405698:	27bd0020 	addiu	sp,sp,32
  40569c:	3c040047 	lui	a0,0x47
  4056a0:	24845bb0 	addiu	a0,a0,23472
  4056a4:	0c12591c 	jal	496470 <access@plt>
  4056a8:	00002821 	move	a1,zero
  4056ac:	8fbf001c 	lw	ra,28(sp)
  4056b0:	0002102b 	sltu	v0,zero,v0
  4056b4:	03e00008 	jr	ra
  4056b8:	27bd0020 	addiu	sp,sp,32
  4056bc:	27bdffe0 	addiu	sp,sp,-32
  4056c0:	afbf001c 	sw	ra,28(sp)
  4056c4:	0c100fc0 	jal	403f00 <_init+0x2814>
  4056c8:	00000000 	nop
  4056cc:	1440000b 	bnez	v0,4056fc <_init+0x4010>
  4056d0:	3c040047 	lui	a0,0x47
  4056d4:	0c101430 	jal	4050c0 <_init+0x39d4>
  4056d8:	00000000 	nop
  4056dc:	10400006 	beqz	v0,4056f8 <_init+0x400c>
  4056e0:	24030003 	li	v1,3
  4056e4:	10430004 	beq	v0,v1,4056f8 <_init+0x400c>
  4056e8:	8fbf001c 	lw	ra,28(sp)
  4056ec:	00001021 	move	v0,zero
  4056f0:	03e00008 	jr	ra
  4056f4:	27bd0020 	addiu	sp,sp,32
  4056f8:	3c040047 	lui	a0,0x47
  4056fc:	24845bb0 	addiu	a0,a0,23472
  405700:	0c12591c 	jal	496470 <access@plt>
  405704:	00002821 	move	a1,zero
  405708:	8fbf001c 	lw	ra,28(sp)
  40570c:	0002102b 	sltu	v0,zero,v0
  405710:	03e00008 	jr	ra
  405714:	27bd0020 	addiu	sp,sp,32
	...
  405720:	9082007c 	lbu	v0,124(a0)
  405724:	27bdffd0 	addiu	sp,sp,-48
  405728:	8c830618 	lw	v1,1560(a0)
  40572c:	afb00028 	sw	s0,40(sp)
  405730:	afbf002c 	sw	ra,44(sp)
  405734:	00808021 	move	s0,a0
  405738:	10400021 	beqz	v0,4057c0 <_init+0x40d4>
  40573c:	8c840084 	lw	a0,132(a0)
  405740:	9202007d 	lbu	v0,125(s0)
  405744:	1440000b 	bnez	v0,405774 <_init+0x4088>
  405748:	0083102a 	slt	v0,a0,v1
  40574c:	10400022 	beqz	v0,4057d8 <_init+0x40ec>
  405750:	00000000 	nop
  405754:	8e020080 	lw	v0,128(s0)
  405758:	ae020628 	sw	v0,1576(s0)
  40575c:	ae0307cc 	sw	v1,1996(s0)
  405760:	8fbf002c 	lw	ra,44(sp)
  405764:	8fb00028 	lw	s0,40(sp)
  405768:	0002102b 	sltu	v0,zero,v0
  40576c:	03e00008 	jr	ra
  405770:	27bd0030 	addiu	sp,sp,48
  405774:	0c11ca4c 	jal	472930 <_init+0x71244>
  405778:	00000000 	nop
  40577c:	3c030047 	lui	v1,0x47
  405780:	24635e78 	addiu	v1,v1,24184
  405784:	afa30010 	sw	v1,16(sp)
  405788:	24030296 	li	v1,662
  40578c:	afa30014 	sw	v1,20(sp)
  405790:	3c030048 	lui	v1,0x48
  405794:	24638888 	addiu	v1,v1,-30584
  405798:	afa30018 	sw	v1,24(sp)
  40579c:	3c030047 	lui	v1,0x47
  4057a0:	24635ec0 	addiu	v1,v1,24256
  4057a4:	3c070047 	lui	a3,0x47
  4057a8:	afa3001c 	sw	v1,28(sp)
  4057ac:	24040005 	li	a0,5
  4057b0:	00402821 	move	a1,v0
  4057b4:	24060002 	li	a2,2
  4057b8:	0c11cb29 	jal	472ca4 <_init+0x715b8>
  4057bc:	24e75e70 	addiu	a3,a3,24176
  4057c0:	8e020628 	lw	v0,1576(s0)
  4057c4:	8fbf002c 	lw	ra,44(sp)
  4057c8:	8fb00028 	lw	s0,40(sp)
  4057cc:	0002102b 	sltu	v0,zero,v0
  4057d0:	03e00008 	jr	ra
  4057d4:	27bd0030 	addiu	sp,sp,48
  4057d8:	8e0207cc 	lw	v0,1996(s0)
  4057dc:	0082102a 	slt	v0,a0,v0
  4057e0:	14400008 	bnez	v0,405804 <_init+0x4118>
  4057e4:	00000000 	nop
  4057e8:	8e020628 	lw	v0,1576(s0)
  4057ec:	1840ffdb 	blez	v0,40575c <_init+0x4070>
  4057f0:	00000000 	nop
  4057f4:	2442ffff 	addiu	v0,v0,-1
  4057f8:	ae020628 	sw	v0,1576(s0)
  4057fc:	1000ffd8 	b	405760 <_init+0x4074>
  405800:	ae0307cc 	sw	v1,1996(s0)
  405804:	2484ffff 	addiu	a0,a0,-1
  405808:	0064202a 	slt	a0,v1,a0
  40580c:	1480fff6 	bnez	a0,4057e8 <_init+0x40fc>
  405810:	00000000 	nop
  405814:	8e020080 	lw	v0,128(s0)
  405818:	1000ffea 	b	4057c4 <_init+0x40d8>
  40581c:	ae020628 	sw	v0,1576(s0)
  405820:	27bdffd8 	addiu	sp,sp,-40
  405824:	afb00018 	sw	s0,24(sp)
  405828:	00808021 	move	s0,a0
  40582c:	248400f4 	addiu	a0,a0,244
  405830:	afbf0024 	sw	ra,36(sp)
  405834:	afb20020 	sw	s2,32(sp)
  405838:	0c1258a4 	jal	496290 <sem_trywait@plt>
  40583c:	afb1001c 	sw	s1,28(sp)
  405840:	0440001d 	bltz	v0,4058b8 <_init+0x41cc>
  405844:	26110124 	addiu	s1,s0,292
  405848:	8e030154 	lw	v1,340(s0)
  40584c:	8e04013c 	lw	a0,316(s0)
  405850:	8e12014c 	lw	s2,332(s0)
  405854:	0064001a 	div	zero,v1,a0
  405858:	008001f4 	teq	a0,zero,0x7
  40585c:	02202021 	move	a0,s1
  405860:	00001810 	mfhi	v1
  405864:	00031100 	sll	v0,v1,0x4
  405868:	00032980 	sll	a1,v1,0x6
  40586c:	00a22823 	subu	a1,a1,v0
  405870:	00a32821 	addu	a1,a1,v1
  405874:	000510c0 	sll	v0,a1,0x3
  405878:	00452823 	subu	a1,v0,a1
  40587c:	00a31821 	addu	v1,a1,v1
  405880:	0c125860 	jal	496180 <pthread_mutex_lock@plt>
  405884:	02439021 	addu	s2,s2,v1
  405888:	8e020154 	lw	v0,340(s0)
  40588c:	02202021 	move	a0,s1
  405890:	24420001 	addiu	v0,v0,1
  405894:	0c1257ec 	jal	495fb0 <pthread_mutex_unlock@plt>
  405898:	ae020154 	sw	v0,340(s0)
  40589c:	8fbf0024 	lw	ra,36(sp)
  4058a0:	02401021 	move	v0,s2
  4058a4:	8fb1001c 	lw	s1,28(sp)
  4058a8:	8fb20020 	lw	s2,32(sp)
  4058ac:	8fb00018 	lw	s0,24(sp)
  4058b0:	03e00008 	jr	ra
  4058b4:	27bd0028 	addiu	sp,sp,40
  4058b8:	1000fff8 	b	40589c <_init+0x41b0>
  4058bc:	00009021 	move	s2,zero
  4058c0:	27bdfdb8 	addiu	sp,sp,-584
  4058c4:	afb00234 	sw	s0,564(sp)
  4058c8:	00808021 	move	s0,a0
  4058cc:	27a40050 	addiu	a0,sp,80
  4058d0:	afbf0244 	sw	ra,580(sp)
  4058d4:	afb30240 	sw	s3,576(sp)
  4058d8:	afb2023c 	sw	s2,572(sp)
  4058dc:	0c11137c 	jal	444df0 <_init+0x43704>
  4058e0:	afb10238 	sw	s1,568(sp)
  4058e4:	0c101430 	jal	4050c0 <_init+0x39d4>
  4058e8:	00000000 	nop
  4058ec:	04400006 	bltz	v0,405908 <_init+0x421c>
  4058f0:	00000000 	nop
  4058f4:	0c101430 	jal	4050c0 <_init+0x39d4>
  4058f8:	00000000 	nop
  4058fc:	28420003 	slti	v0,v0,3
  405900:	14400181 	bnez	v0,405f08 <_init+0x481c>
  405904:	24020001 	li	v0,1
  405908:	0c101430 	jal	4050c0 <_init+0x39d4>
  40590c:	00000000 	nop
  405910:	28420003 	slti	v0,v0,3
  405914:	144001d0 	bnez	v0,406058 <_init+0x496c>
  405918:	00000000 	nop
  40591c:	0c101430 	jal	4050c0 <_init+0x39d4>
  405920:	00000000 	nop
  405924:	28420006 	slti	v0,v0,6
  405928:	104001cb 	beqz	v0,406058 <_init+0x496c>
  40592c:	24020002 	li	v0,2
  405930:	afa20050 	sw	v0,80(sp)
  405934:	24020001 	li	v0,1
  405938:	afa2006c 	sw	v0,108(sp)
  40593c:	8e030010 	lw	v1,16(s0)
  405940:	24020001 	li	v0,1
  405944:	afa20074 	sw	v0,116(sp)
  405948:	2402ffff 	li	v0,-1
  40594c:	afa20070 	sw	v0,112(sp)
  405950:	afa00064 	sw	zero,100(sp)
  405954:	14600151 	bnez	v1,405e9c <_init+0x47b0>
  405958:	24020042 	li	v0,66
  40595c:	8e030098 	lw	v1,152(s0)
  405960:	8e09009c 	lw	t1,156(s0)
  405964:	8e0800a0 	lw	t0,160(s0)
  405968:	8e0700a4 	lw	a3,164(s0)
  40596c:	8e0600a8 	lw	a2,168(s0)
  405970:	8e0500ac 	lw	a1,172(s0)
  405974:	2c640002 	sltiu	a0,v1,2
  405978:	afa20088 	sw	v0,136(sp)
  40597c:	afa300f0 	sw	v1,240(sp)
  405980:	afa900f4 	sw	t1,244(sp)
  405984:	afa800f8 	sw	t0,248(sp)
  405988:	afa700fc 	sw	a3,252(sp)
  40598c:	afa60100 	sw	a2,256(sp)
  405990:	14800155 	bnez	a0,405ee8 <_init+0x47fc>
  405994:	afa50104 	sw	a1,260(sp)
  405998:	24020006 	li	v0,6
  40599c:	ae0200b0 	sw	v0,176(s0)
  4059a0:	afa20108 	sw	v0,264(sp)
  4059a4:	8e040018 	lw	a0,24(s0)
  4059a8:	8e050014 	lw	a1,20(s0)
  4059ac:	92030088 	lbu	v1,136(s0)
  4059b0:	afa40080 	sw	a0,128(sp)
  4059b4:	3c040045 	lui	a0,0x45
  4059b8:	2484f390 	addiu	a0,a0,-3184
  4059bc:	afa401fc 	sw	a0,508(sp)
  4059c0:	3c040045 	lui	a0,0x45
  4059c4:	2484f5b0 	addiu	a0,a0,-2640
  4059c8:	afa40200 	sw	a0,512(sp)
  4059cc:	3c040045 	lui	a0,0x45
  4059d0:	2484f6f8 	addiu	a0,a0,-2312
  4059d4:	afa40204 	sw	a0,516(sp)
  4059d8:	3c040045 	lui	a0,0x45
  4059dc:	24020001 	li	v0,1
  4059e0:	2484f714 	addiu	a0,a0,-2284
  4059e4:	afa5007c 	sw	a1,124(sp)
  4059e8:	afa40208 	sw	a0,520(sp)
  4059ec:	afa00054 	sw	zero,84(sp)
  4059f0:	afa20058 	sw	v0,88(sp)
  4059f4:	afa20060 	sw	v0,96(sp)
  4059f8:	afa20084 	sw	v0,132(sp)
  4059fc:	106000f2 	beqz	v1,405dc8 <_init+0x46dc>
  405a00:	afa30068 	sw	v1,104(sp)
  405a04:	8e02008c 	lw	v0,140(s0)
  405a08:	8e080090 	lw	t0,144(s0)
  405a0c:	8e070094 	lw	a3,148(s0)
  405a10:	afa20178 	sw	v0,376(sp)
  405a14:	8e0606f0 	lw	a2,1776(s0)
  405a18:	8e05078c 	lw	a1,1932(s0)
  405a1c:	8e030790 	lw	v1,1936(s0)
  405a20:	8e020140 	lw	v0,320(s0)
  405a24:	8e040030 	lw	a0,48(s0)
  405a28:	afa8017c 	sw	t0,380(sp)
  405a2c:	afa70180 	sw	a3,384(sp)
  405a30:	afa6020c 	sw	a2,524(sp)
  405a34:	afa50210 	sw	a1,528(sp)
  405a38:	afa30214 	sw	v1,532(sp)
  405a3c:	148000f2 	bnez	a0,405e08 <_init+0x471c>
  405a40:	afa20218 	sw	v0,536(sp)
  405a44:	8e020044 	lw	v0,68(s0)
  405a48:	24030001 	li	v1,1
  405a4c:	10430170 	beq	v0,v1,406010 <_init+0x4924>
  405a50:	00000000 	nop
  405a54:	14400137 	bnez	v0,405f34 <_init+0x4848>
  405a58:	24030002 	li	v1,2
  405a5c:	8e020048 	lw	v0,72(s0)
  405a60:	afa0010c 	sw	zero,268(sp)
  405a64:	afa20110 	sw	v0,272(sp)
  405a68:	8e020040 	lw	v0,64(s0)
  405a6c:	26040038 	addiu	a0,s0,56
  405a70:	2605003c 	addiu	a1,s0,60
  405a74:	0c1119aa 	jal	4466a8 <_init+0x44fbc>
  405a78:	afa20078 	sw	v0,120(sp)
  405a7c:	8e020038 	lw	v0,56(s0)
  405a80:	8e03003c 	lw	v1,60(s0)
  405a84:	afa201dc 	sw	v0,476(sp)
  405a88:	10400003 	beqz	v0,405a98 <_init+0x43ac>
  405a8c:	afa301e0 	sw	v1,480(sp)
  405a90:	14600007 	bnez	v1,405ab0 <_init+0x43c4>
  405a94:	70621802 	mul	v1,v1,v0
  405a98:	24030019 	li	v1,25
  405a9c:	24020001 	li	v0,1
  405aa0:	ae030038 	sw	v1,56(s0)
  405aa4:	afa301dc 	sw	v1,476(sp)
  405aa8:	ae02003c 	sw	v0,60(s0)
  405aac:	afa201e0 	sw	v0,480(sp)
  405ab0:	8fa20078 	lw	v0,120(sp)
  405ab4:	0043001b 	divu	zero,v0,v1
  405ab8:	006001f4 	teq	v1,zero,0x7
  405abc:	00002010 	mfhi	a0
  405ac0:	10800004 	beqz	a0,405ad4 <_init+0x43e8>
  405ac4:	00002012 	mflo	a0
  405ac8:	24820001 	addiu	v0,a0,1
  405acc:	70431002 	mul	v0,v0,v1
  405ad0:	afa20078 	sw	v0,120(sp)
  405ad4:	ae020040 	sw	v0,64(s0)
  405ad8:	0c111a9d 	jal	446a74 <_init+0x45388>
  405adc:	27a40050 	addiu	a0,sp,80
  405ae0:	104001cf 	beqz	v0,406220 <_init+0x4b34>
  405ae4:	00408821 	move	s1,v0
  405ae8:	26040350 	addiu	a0,s0,848
  405aec:	00002821 	move	a1,zero
  405af0:	0c1258ec 	jal	4963b0 <memset@plt>
  405af4:	24060160 	li	a2,352
  405af8:	8fa20080 	lw	v0,128(sp)
  405afc:	8fa3007c 	lw	v1,124(sp)
  405b00:	8fa50084 	lw	a1,132(sp)
  405b04:	2404fff0 	li	a0,-16
  405b08:	2442000f 	addiu	v0,v0,15
  405b0c:	00441024 	and	v0,v0,a0
  405b10:	2463000f 	addiu	v1,v1,15
  405b14:	00641824 	and	v1,v1,a0
  405b18:	ae050378 	sw	a1,888(s0)
  405b1c:	00022043 	sra	a0,v0,0x1
  405b20:	24050002 	li	a1,2
  405b24:	ae030384 	sw	v1,900(s0)
  405b28:	ae030380 	sw	v1,896(s0)
  405b2c:	ae020390 	sw	v0,912(s0)
  405b30:	ae040394 	sw	a0,916(s0)
  405b34:	ae05037c 	sw	a1,892(s0)
  405b38:	ae0003c0 	sw	zero,960(s0)
  405b3c:	ae11034c 	sw	s1,844(s0)
  405b40:	27a20050 	addiu	v0,sp,80
  405b44:	26030170 	addiu	v1,s0,368
  405b48:	27a40220 	addiu	a0,sp,544
  405b4c:	8c480000 	lw	t0,0(v0)
  405b50:	8c470004 	lw	a3,4(v0)
  405b54:	8c460008 	lw	a2,8(v0)
  405b58:	8c45000c 	lw	a1,12(v0)
  405b5c:	24420010 	addiu	v0,v0,16
  405b60:	ac680000 	sw	t0,0(v1)
  405b64:	ac670004 	sw	a3,4(v1)
  405b68:	ac660008 	sw	a2,8(v1)
  405b6c:	ac65000c 	sw	a1,12(v1)
  405b70:	1444fff6 	bne	v0,a0,405b4c <_init+0x4460>
  405b74:	24630010 	addiu	v1,v1,16
  405b78:	8c460004 	lw	a2,4(v0)
  405b7c:	8c450008 	lw	a1,8(v0)
  405b80:	8c440000 	lw	a0,0(v0)
  405b84:	ac660004 	sw	a2,4(v1)
  405b88:	ac650008 	sw	a1,8(v1)
  405b8c:	8fa601dc 	lw	a2,476(sp)
  405b90:	8fa70108 	lw	a3,264(sp)
  405b94:	8fa501e0 	lw	a1,480(sp)
  405b98:	8fa80110 	lw	t0,272(sp)
  405b9c:	8fa20078 	lw	v0,120(sp)
  405ba0:	00005021 	move	t2,zero
  405ba4:	ac640000 	sw	a0,0(v1)
  405ba8:	00005821 	move	t3,zero
  405bac:	ae0600e0 	sw	a2,224(s0)
  405bb0:	3c060041 	lui	a2,0x41
  405bb4:	ae07062c 	sw	a3,1580(s0)
  405bb8:	ae0500e4 	sw	a1,228(s0)
  405bbc:	2604061c 	addiu	a0,s0,1564
  405bc0:	ae0a0610 	sw	t2,1552(s0)
  405bc4:	ae0b0614 	sw	t3,1556(s0)
  405bc8:	ae080618 	sw	t0,1560(s0)
  405bcc:	ae000620 	sw	zero,1568(s0)
  405bd0:	ae000624 	sw	zero,1572(s0)
  405bd4:	ae000628 	sw	zero,1576(s0)
  405bd8:	ae0200e8 	sw	v0,232(s0)
  405bdc:	ae0000d8 	sw	zero,216(s0)
  405be0:	ae0000dc 	sw	zero,220(s0)
  405be4:	ae0a00d0 	sw	t2,208(s0)
  405be8:	ae0b00d4 	sw	t3,212(s0)
  405bec:	00002821 	move	a1,zero
  405bf0:	24c68d14 	addiu	a2,a2,-29420
  405bf4:	0c125888 	jal	496220 <pthread_create@plt>
  405bf8:	02003821 	move	a3,s0
  405bfc:	04400151 	bltz	v0,406144 <_init+0x4a58>
  405c00:	3c13004c 	lui	s3,0x4c
  405c04:	8e110018 	lw	s1,24(s0)
  405c08:	8e030014 	lw	v1,20(s0)
  405c0c:	2402fff0 	li	v0,-16
  405c10:	2631000f 	addiu	s1,s1,15
  405c14:	2463000f 	addiu	v1,v1,15
  405c18:	02228824 	and	s1,s1,v0
  405c1c:	00621024 	and	v0,v1,v0
  405c20:	72228802 	mul	s1,s1,v0
  405c24:	26739d3c 	addiu	s3,s3,-25284
  405c28:	8e62001c 	lw	v0,28(s3)
  405c2c:	00119080 	sll	s2,s1,0x2
  405c30:	02519021 	addu	s2,s2,s1
  405c34:	00129043 	sra	s2,s2,0x1
  405c38:	0052102b 	sltu	v0,v0,s2
  405c3c:	14400119 	bnez	v0,4060a4 <_init+0x49b8>
  405c40:	00000000 	nop
  405c44:	3c020018 	lui	v0,0x18
  405c48:	24426a01 	addiu	v0,v0,27137
  405c4c:	0242102a 	slt	v0,s2,v0
  405c50:	144000b0 	bnez	v0,405f14 <_init+0x4828>
  405c54:	00000000 	nop
  405c58:	8e620010 	lw	v0,16(s3)
  405c5c:	1440014e 	bnez	v0,406198 <_init+0x4aac>
  405c60:	00000000 	nop
  405c64:	3c12004c 	lui	s2,0x4c
  405c68:	26529d48 	addiu	s2,s2,-25272
  405c6c:	260407d0 	addiu	a0,s0,2000
  405c70:	00002821 	move	a1,zero
  405c74:	0c1258ec 	jal	4963b0 <memset@plt>
  405c78:	24060030 	li	a2,48
  405c7c:	0c125894 	jal	496250 <malloc@plt>
  405c80:	24044000 	li	a0,16384
  405c84:	10400173 	beqz	v0,406254 <_init+0x4b68>
  405c88:	ae0207fc 	sw	v0,2044(s0)
  405c8c:	00402021 	move	a0,v0
  405c90:	00002821 	move	a1,zero
  405c94:	0c1258ec 	jal	4963b0 <memset@plt>
  405c98:	24064000 	li	a2,16384
  405c9c:	8e44000c 	lw	a0,12(s2)
  405ca0:	8e470008 	lw	a3,8(s2)
  405ca4:	8e480000 	lw	t0,0(s2)
  405ca8:	00111042 	srl	v0,s1,0x1
  405cac:	8e460010 	lw	a2,16(s2)
  405cb0:	00442821 	addu	a1,v0,a0
  405cb4:	00471821 	addu	v1,v0,a3
  405cb8:	00b15021 	addu	t2,a1,s1
  405cbc:	00714821 	addu	t1,v1,s1
  405cc0:	ae0507e4 	sw	a1,2020(s0)
  405cc4:	ae0407d8 	sw	a0,2008(s0)
  405cc8:	ae0707dc 	sw	a3,2012(s0)
  405ccc:	ae1107f4 	sw	s1,2036(s0)
  405cd0:	ae0207e0 	sw	v0,2016(s0)
  405cd4:	ae0307e8 	sw	v1,2024(s0)
  405cd8:	ae0a07ec 	sw	t2,2028(s0)
  405cdc:	ae0907f0 	sw	t1,2032(s0)
  405ce0:	ae0807f8 	sw	t0,2040(s0)
  405ce4:	a20007d1 	sb	zero,2001(s0)
  405ce8:	0c1258ec 	jal	4963b0 <memset@plt>
  405cec:	00002821 	move	a1,zero
  405cf0:	3c02004c 	lui	v0,0x4c
  405cf4:	90429d70 	lbu	v0,-25232(v0)
  405cf8:	1040008c 	beqz	v0,405f2c <_init+0x4840>
  405cfc:	24020001 	li	v0,1
  405d00:	ae0207d4 	sw	v0,2004(s0)
  405d04:	24020001 	li	v0,1
  405d08:	ae420004 	sw	v0,4(s2)
  405d0c:	0c11ca4c 	jal	472930 <_init+0x71244>
  405d10:	a20207d0 	sb	v0,2000(s0)
  405d14:	3c0c0047 	lui	t4,0x47
  405d18:	258c5e78 	addiu	t4,t4,24184
  405d1c:	8e0407f4 	lw	a0,2036(s0)
  405d20:	8e0307e0 	lw	v1,2016(s0)
  405d24:	8e0707e8 	lw	a3,2024(s0)
  405d28:	8e0607ec 	lw	a2,2028(s0)
  405d2c:	8e0507f0 	lw	a1,2032(s0)
  405d30:	8e0b0000 	lw	t3,0(s0)
  405d34:	8e0a07d8 	lw	t2,2008(s0)
  405d38:	8e0907dc 	lw	t1,2012(s0)
  405d3c:	8e0807e4 	lw	t0,2020(s0)
  405d40:	afac0010 	sw	t4,16(sp)
  405d44:	240c1197 	li	t4,4503
  405d48:	afac0014 	sw	t4,20(sp)
  405d4c:	3c0c0048 	lui	t4,0x48
  405d50:	258c89ac 	addiu	t4,t4,-30292
  405d54:	afac0018 	sw	t4,24(sp)
  405d58:	00042040 	sll	a0,a0,0x1
  405d5c:	3c0c0047 	lui	t4,0x47
  405d60:	00832021 	addu	a0,a0,v1
  405d64:	258c5ffc 	addiu	t4,t4,24572
  405d68:	afa70034 	sw	a3,52(sp)
  405d6c:	3c070047 	lui	a3,0x47
  405d70:	afa60038 	sw	a2,56(sp)
  405d74:	afa5003c 	sw	a1,60(sp)
  405d78:	afa40040 	sw	a0,64(sp)
  405d7c:	00402821 	move	a1,v0
  405d80:	afac001c 	sw	t4,28(sp)
  405d84:	afab0020 	sw	t3,32(sp)
  405d88:	afaa0024 	sw	t2,36(sp)
  405d8c:	afa90028 	sw	t1,40(sp)
  405d90:	afa3002c 	sw	v1,44(sp)
  405d94:	afa80030 	sw	t0,48(sp)
  405d98:	24040004 	li	a0,4
  405d9c:	24060002 	li	a2,2
  405da0:	0c11cb29 	jal	472ca4 <_init+0x715b8>
  405da4:	24e75e70 	addiu	a3,a3,24176
  405da8:	00001021 	move	v0,zero
  405dac:	8fbf0244 	lw	ra,580(sp)
  405db0:	8fb30240 	lw	s3,576(sp)
  405db4:	8fb2023c 	lw	s2,572(sp)
  405db8:	8fb10238 	lw	s1,568(sp)
  405dbc:	8fb00234 	lw	s0,564(sp)
  405dc0:	03e00008 	jr	ra
  405dc4:	27bd0248 	addiu	sp,sp,584
  405dc8:	8e080090 	lw	t0,144(s0)
  405dcc:	8e070094 	lw	a3,148(s0)
  405dd0:	8e0606f0 	lw	a2,1776(s0)
  405dd4:	8e05078c 	lw	a1,1932(s0)
  405dd8:	8e030790 	lw	v1,1936(s0)
  405ddc:	8e020140 	lw	v0,320(s0)
  405de0:	8e040030 	lw	a0,48(s0)
  405de4:	ae00008c 	sw	zero,140(s0)
  405de8:	afa00178 	sw	zero,376(sp)
  405dec:	afa8017c 	sw	t0,380(sp)
  405df0:	afa70180 	sw	a3,384(sp)
  405df4:	afa6020c 	sw	a2,524(sp)
  405df8:	afa50210 	sw	a1,528(sp)
  405dfc:	afa30214 	sw	v1,532(sp)
  405e00:	1080ff10 	beqz	a0,405a44 <_init+0x4358>
  405e04:	afa20218 	sw	v0,536(sp)
  405e08:	00002821 	move	a1,zero
  405e0c:	0c1111d9 	jal	444764 <_init+0x43078>
  405e10:	24060002 	li	a2,2
  405e14:	8e040034 	lw	a0,52(s0)
  405e18:	24050010 	li	a1,16
  405e1c:	24060414 	li	a2,1044
  405e20:	0c1111d9 	jal	444764 <_init+0x43078>
  405e24:	ae020030 	sw	v0,48(s0)
  405e28:	8e040030 	lw	a0,48(s0)
  405e2c:	ae020034 	sw	v0,52(s0)
  405e30:	0c113e53 	jal	44f94c <_init+0x4e260>
  405e34:	24450014 	addiu	a1,v0,20
  405e38:	1440ff02 	bnez	v0,405a44 <_init+0x4358>
  405e3c:	ae020630 	sw	v0,1584(s0)
  405e40:	0c11ca4c 	jal	472930 <_init+0x71244>
  405e44:	00000000 	nop
  405e48:	3c050047 	lui	a1,0x47
  405e4c:	24a55e78 	addiu	a1,a1,24184
  405e50:	afa50010 	sw	a1,16(sp)
  405e54:	3c040048 	lui	a0,0x48
  405e58:	3c050047 	lui	a1,0x47
  405e5c:	24848990 	addiu	a0,a0,-30320
  405e60:	240305a8 	li	v1,1448
  405e64:	24a55f08 	addiu	a1,a1,24328
  405e68:	3c070047 	lui	a3,0x47
  405e6c:	afa40018 	sw	a0,24(sp)
  405e70:	afa5001c 	sw	a1,28(sp)
  405e74:	afa40020 	sw	a0,32(sp)
  405e78:	00402821 	move	a1,v0
  405e7c:	afa30014 	sw	v1,20(sp)
  405e80:	afa30024 	sw	v1,36(sp)
  405e84:	24040003 	li	a0,3
  405e88:	24060002 	li	a2,2
  405e8c:	0c11cb29 	jal	472ca4 <_init+0x715b8>
  405e90:	24e75e70 	addiu	a3,a3,24176
  405e94:	1000ffc5 	b	405dac <_init+0x46c0>
  405e98:	2402ffff 	li	v0,-1
  405e9c:	38630002 	xori	v1,v1,0x2
  405ea0:	2404004d 	li	a0,77
  405ea4:	24020064 	li	v0,100
  405ea8:	0083100b 	movn	v0,a0,v1
  405eac:	8e030098 	lw	v1,152(s0)
  405eb0:	8e09009c 	lw	t1,156(s0)
  405eb4:	8e0800a0 	lw	t0,160(s0)
  405eb8:	8e0700a4 	lw	a3,164(s0)
  405ebc:	8e0600a8 	lw	a2,168(s0)
  405ec0:	8e0500ac 	lw	a1,172(s0)
  405ec4:	2c640002 	sltiu	a0,v1,2
  405ec8:	afa20088 	sw	v0,136(sp)
  405ecc:	afa300f0 	sw	v1,240(sp)
  405ed0:	afa900f4 	sw	t1,244(sp)
  405ed4:	afa800f8 	sw	t0,248(sp)
  405ed8:	afa700fc 	sw	a3,252(sp)
  405edc:	afa60100 	sw	a2,256(sp)
  405ee0:	1080fead 	beqz	a0,405998 <_init+0x42ac>
  405ee4:	afa50104 	sw	a1,260(sp)
  405ee8:	8e0200b0 	lw	v0,176(s0)
  405eec:	2c420002 	sltiu	v0,v0,2
  405ef0:	1040feaa 	beqz	v0,40599c <_init+0x42b0>
  405ef4:	24020006 	li	v0,6
  405ef8:	24020001 	li	v0,1
  405efc:	ae0200b0 	sw	v0,176(s0)
  405f00:	1000fea8 	b	4059a4 <_init+0x42b8>
  405f04:	afa20108 	sw	v0,264(sp)
  405f08:	afa20050 	sw	v0,80(sp)
  405f0c:	1000fe8b 	b	40593c <_init+0x4250>
  405f10:	afa0006c 	sw	zero,108(sp)
  405f14:	8e620024 	lw	v0,36(s3)
  405f18:	144000b8 	bnez	v0,4061fc <_init+0x4b10>
  405f1c:	00000000 	nop
  405f20:	3c12004c 	lui	s2,0x4c
  405f24:	1000ff51 	b	405c6c <_init+0x4580>
  405f28:	26529d5c 	addiu	s2,s2,-25252
  405f2c:	1000ff75 	b	405d04 <_init+0x4618>
  405f30:	ae0007d4 	sw	zero,2004(s0)
  405f34:	10430020 	beq	v0,v1,405fb8 <_init+0x48cc>
  405f38:	24030003 	li	v1,3
  405f3c:	1043001e 	beq	v0,v1,405fb8 <_init+0x48cc>
  405f40:	00000000 	nop
  405f44:	0c11ca4c 	jal	472930 <_init+0x71244>
  405f48:	00000000 	nop
  405f4c:	3c040047 	lui	a0,0x47
  405f50:	24845e78 	addiu	a0,a0,24184
  405f54:	8e030044 	lw	v1,68(s0)
  405f58:	afa40010 	sw	a0,16(sp)
  405f5c:	240405d8 	li	a0,1496
  405f60:	afa40014 	sw	a0,20(sp)
  405f64:	3c040048 	lui	a0,0x48
  405f68:	24848990 	addiu	a0,a0,-30320
  405f6c:	afa40018 	sw	a0,24(sp)
  405f70:	3c040047 	lui	a0,0x47
  405f74:	24845f30 	addiu	a0,a0,24368
  405f78:	afa4001c 	sw	a0,28(sp)
  405f7c:	afa30020 	sw	v1,32(sp)
  405f80:	24040006 	li	a0,6
  405f84:	00402821 	move	a1,v0
  405f88:	3c070047 	lui	a3,0x47
  405f8c:	24060002 	li	a2,2
  405f90:	0c11cb29 	jal	472ca4 <_init+0x715b8>
  405f94:	24e75e70 	addiu	a3,a3,24176
  405f98:	8fbf0244 	lw	ra,580(sp)
  405f9c:	8fb30240 	lw	s3,576(sp)
  405fa0:	8fb2023c 	lw	s2,572(sp)
  405fa4:	8fb10238 	lw	s1,568(sp)
  405fa8:	8fb00234 	lw	s0,564(sp)
  405fac:	2402ffff 	li	v0,-1
  405fb0:	03e00008 	jr	ra
  405fb4:	27bd0248 	addiu	sp,sp,584
  405fb8:	8e0c004c 	lw	t4,76(s0)
  405fbc:	8e0b0048 	lw	t3,72(s0)
  405fc0:	8e0a0050 	lw	t2,80(s0)
  405fc4:	8e090054 	lw	t1,84(s0)
  405fc8:	8e080058 	lw	t0,88(s0)
  405fcc:	8e07005c 	lw	a3,92(s0)
  405fd0:	8e060060 	lw	a2,96(s0)
  405fd4:	8e050064 	lw	a1,100(s0)
  405fd8:	8e040068 	lw	a0,104(s0)
  405fdc:	9203006c 	lbu	v1,108(s0)
  405fe0:	afa2010c 	sw	v0,268(sp)
  405fe4:	afac0114 	sw	t4,276(sp)
  405fe8:	afab0118 	sw	t3,280(sp)
  405fec:	afaa0144 	sw	t2,324(sp)
  405ff0:	afa90148 	sw	t1,328(sp)
  405ff4:	afa80134 	sw	t0,308(sp)
  405ff8:	afa7014c 	sw	a3,332(sp)
  405ffc:	afa60150 	sw	a2,336(sp)
  406000:	afa50138 	sw	a1,312(sp)
  406004:	afa4013c 	sw	a0,316(sp)
  406008:	1000fe97 	b	405a68 <_init+0x437c>
  40600c:	a3a30141 	sb	v1,321(sp)
  406010:	8e0a0050 	lw	t2,80(s0)
  406014:	8e09004c 	lw	t1,76(s0)
  406018:	8e080048 	lw	t0,72(s0)
  40601c:	8e070054 	lw	a3,84(s0)
  406020:	8e060058 	lw	a2,88(s0)
  406024:	8e05005c 	lw	a1,92(s0)
  406028:	92040060 	lbu	a0,96(s0)
  40602c:	92030061 	lbu	v1,97(s0)
  406030:	afa2010c 	sw	v0,268(sp)
  406034:	afaa0128 	sw	t2,296(sp)
  406038:	afa90114 	sw	t1,276(sp)
  40603c:	afa80118 	sw	t0,280(sp)
  406040:	afa70134 	sw	a3,308(sp)
  406044:	afa60138 	sw	a2,312(sp)
  406048:	afa5013c 	sw	a1,316(sp)
  40604c:	a3a40140 	sb	a0,320(sp)
  406050:	1000fe85 	b	405a68 <_init+0x437c>
  406054:	a3a30141 	sb	v1,321(sp)
  406058:	0c11ca4c 	jal	472930 <_init+0x71244>
  40605c:	00000000 	nop
  406060:	0c101430 	jal	4050c0 <_init+0x39d4>
  406064:	00408021 	move	s0,v0
  406068:	3c030047 	lui	v1,0x47
  40606c:	24635e78 	addiu	v1,v1,24184
  406070:	afa30010 	sw	v1,16(sp)
  406074:	2403056f 	li	v1,1391
  406078:	afa30014 	sw	v1,20(sp)
  40607c:	3c030048 	lui	v1,0x48
  406080:	24638990 	addiu	v1,v1,-30320
  406084:	afa30018 	sw	v1,24(sp)
  406088:	3c030047 	lui	v1,0x47
  40608c:	24635ee8 	addiu	v1,v1,24296
  406090:	afa3001c 	sw	v1,28(sp)
  406094:	afa20020 	sw	v0,32(sp)
  406098:	24040006 	li	a0,6
  40609c:	1000ffba 	b	405f88 <_init+0x489c>
  4060a0:	02002821 	move	a1,s0
  4060a4:	0c11ca4c 	jal	472930 <_init+0x71244>
  4060a8:	3c130047 	lui	s3,0x47
  4060ac:	24041158 	li	a0,4440
  4060b0:	8e030000 	lw	v1,0(s0)
  4060b4:	afa40014 	sw	a0,20(sp)
  4060b8:	3c040048 	lui	a0,0x48
  4060bc:	248489ac 	addiu	a0,a0,-30292
  4060c0:	26735e78 	addiu	s3,s3,24184
  4060c4:	afa40018 	sw	a0,24(sp)
  4060c8:	3c040047 	lui	a0,0x47
  4060cc:	3c110047 	lui	s1,0x47
  4060d0:	afb30010 	sw	s3,16(sp)
  4060d4:	24845f90 	addiu	a0,a0,24464
  4060d8:	afa4001c 	sw	a0,28(sp)
  4060dc:	afa30020 	sw	v1,32(sp)
  4060e0:	24040006 	li	a0,6
  4060e4:	00402821 	move	a1,v0
  4060e8:	24060002 	li	a2,2
  4060ec:	0c11cb29 	jal	472ca4 <_init+0x715b8>
  4060f0:	26275e70 	addiu	a3,s1,24176
  4060f4:	0c11ca4c 	jal	472930 <_init+0x71244>
  4060f8:	00000000 	nop
  4060fc:	24040613 	li	a0,1555
  406100:	8e030000 	lw	v1,0(s0)
  406104:	afa40014 	sw	a0,20(sp)
  406108:	3c040048 	lui	a0,0x48
  40610c:	24848990 	addiu	a0,a0,-30320
  406110:	afa40018 	sw	a0,24(sp)
  406114:	3c040047 	lui	a0,0x47
  406118:	24846064 	addiu	a0,a0,24676
  40611c:	afa4001c 	sw	a0,28(sp)
  406120:	00402821 	move	a1,v0
  406124:	afb30010 	sw	s3,16(sp)
  406128:	afa30020 	sw	v1,32(sp)
  40612c:	24040005 	li	a0,5
  406130:	24060002 	li	a2,2
  406134:	0c11cb29 	jal	472ca4 <_init+0x715b8>
  406138:	26275e70 	addiu	a3,s1,24176
  40613c:	1000ff1b 	b	405dac <_init+0x46c0>
  406140:	00001021 	move	v0,zero
  406144:	0c11ca4c 	jal	472930 <_init+0x71244>
  406148:	00000000 	nop
  40614c:	3c030047 	lui	v1,0x47
  406150:	24635e78 	addiu	v1,v1,24184
  406154:	afa30010 	sw	v1,16(sp)
  406158:	2403060d 	li	v1,1549
  40615c:	afa30014 	sw	v1,20(sp)
  406160:	3c030048 	lui	v1,0x48
  406164:	24638990 	addiu	v1,v1,-30320
  406168:	afa30018 	sw	v1,24(sp)
  40616c:	3c030047 	lui	v1,0x47
  406170:	24635f68 	addiu	v1,v1,24424
  406174:	3c070047 	lui	a3,0x47
  406178:	00402821 	move	a1,v0
  40617c:	afa3001c 	sw	v1,28(sp)
  406180:	24040006 	li	a0,6
  406184:	24060002 	li	a2,2
  406188:	0c11cb29 	jal	472ca4 <_init+0x715b8>
  40618c:	24e75e70 	addiu	a3,a3,24176
  406190:	1000ff06 	b	405dac <_init+0x46c0>
  406194:	2402ffff 	li	v0,-1
  406198:	0c11ca4c 	jal	472930 <_init+0x71244>
  40619c:	3c110047 	lui	s1,0x47
  4061a0:	8e63000c 	lw	v1,12(s3)
  4061a4:	3c130047 	lui	s3,0x47
  4061a8:	26735e78 	addiu	s3,s3,24184
  4061ac:	8e040000 	lw	a0,0(s0)
  4061b0:	afb30010 	sw	s3,16(sp)
  4061b4:	2405115f 	li	a1,4447
  4061b8:	afa50014 	sw	a1,20(sp)
  4061bc:	3c050048 	lui	a1,0x48
  4061c0:	24a589ac 	addiu	a1,a1,-30292
  4061c4:	afa50018 	sw	a1,24(sp)
  4061c8:	3c050047 	lui	a1,0x47
  4061cc:	24a55fb8 	addiu	a1,a1,24504
  4061d0:	afa5001c 	sw	a1,28(sp)
  4061d4:	afa40020 	sw	a0,32(sp)
  4061d8:	afa30024 	sw	v1,36(sp)
  4061dc:	afb20028 	sw	s2,40(sp)
  4061e0:	24040006 	li	a0,6
  4061e4:	00402821 	move	a1,v0
  4061e8:	24060002 	li	a2,2
  4061ec:	0c11cb29 	jal	472ca4 <_init+0x715b8>
  4061f0:	26275e70 	addiu	a3,s1,24176
  4061f4:	1000ffbf 	b	4060f4 <_init+0x4a08>
  4061f8:	00000000 	nop
  4061fc:	0c11ca4c 	jal	472930 <_init+0x71244>
  406200:	3c110047 	lui	s1,0x47
  406204:	8e630020 	lw	v1,32(s3)
  406208:	3c130047 	lui	s3,0x47
  40620c:	26735e78 	addiu	s3,s3,24184
  406210:	8e040000 	lw	a0,0(s0)
  406214:	afb30010 	sw	s3,16(sp)
  406218:	1000ffe7 	b	4061b8 <_init+0x4acc>
  40621c:	24051167 	li	a1,4455
  406220:	0c11ca4c 	jal	472930 <_init+0x71244>
  406224:	00000000 	nop
  406228:	3c030047 	lui	v1,0x47
  40622c:	24635e78 	addiu	v1,v1,24184
  406230:	afa30010 	sw	v1,16(sp)
  406234:	240305eb 	li	v1,1515
  406238:	afa30014 	sw	v1,20(sp)
  40623c:	3c030048 	lui	v1,0x48
  406240:	24638990 	addiu	v1,v1,-30320
  406244:	afa30018 	sw	v1,24(sp)
  406248:	3c030047 	lui	v1,0x47
  40624c:	1000ffc9 	b	406174 <_init+0x4a88>
  406250:	24635f54 	addiu	v1,v1,24404
  406254:	0c11ca4c 	jal	472930 <_init+0x71244>
  406258:	3c130047 	lui	s3,0x47
  40625c:	24041171 	li	a0,4465
  406260:	8e030000 	lw	v1,0(s0)
  406264:	afa40014 	sw	a0,20(sp)
  406268:	3c040048 	lui	a0,0x48
  40626c:	248489ac 	addiu	a0,a0,-30292
  406270:	26735e78 	addiu	s3,s3,24184
  406274:	afa40018 	sw	a0,24(sp)
  406278:	3c040047 	lui	a0,0x47
  40627c:	3c110047 	lui	s1,0x47
  406280:	afb30010 	sw	s3,16(sp)
  406284:	1000ff94 	b	4060d8 <_init+0x49ec>
  406288:	24845fe4 	addiu	a0,a0,24548
  40628c:	27bdffd8 	addiu	sp,sp,-40
  406290:	00003021 	move	a2,zero
  406294:	afb00020 	sw	s0,32(sp)
  406298:	00a08021 	move	s0,a1
  40629c:	afbf0024 	sw	ra,36(sp)
  4062a0:	0c125910 	jal	496440 <strtoull@plt>
  4062a4:	27a50018 	addiu	a1,sp,24
  4062a8:	8fa40018 	lw	a0,24(sp)
  4062ac:	90850000 	lbu	a1,0(a0)
  4062b0:	24a5ffb9 	addiu	a1,a1,-71
  4062b4:	30a500ff 	andi	a1,a1,0xff
  4062b8:	2ca60027 	sltiu	a2,a1,39
  4062bc:	10c00015 	beqz	a2,406314 <_init+0x4c28>
  4062c0:	3c060048 	lui	a2,0x48
  4062c4:	00052880 	sll	a1,a1,0x2
  4062c8:	24c68530 	addiu	a2,a2,-31440
  4062cc:	00c52821 	addu	a1,a2,a1
  4062d0:	8ca50000 	lw	a1,0(a1)
  4062d4:	00a00008 	jr	a1
  4062d8:	00000000 	nop
  4062dc:	00023582 	srl	a2,v0,0x16
  4062e0:	00032a80 	sll	a1,v1,0xa
  4062e4:	00c51825 	or	v1,a2,a1
  4062e8:	00021280 	sll	v0,v0,0xa
  4062ec:	00023582 	srl	a2,v0,0x16
  4062f0:	00032a80 	sll	a1,v1,0xa
  4062f4:	00c51825 	or	v1,a2,a1
  4062f8:	00021280 	sll	v0,v0,0xa
  4062fc:	00023582 	srl	a2,v0,0x16
  406300:	00032a80 	sll	a1,v1,0xa
  406304:	24840001 	addiu	a0,a0,1
  406308:	00c51825 	or	v1,a2,a1
  40630c:	00021280 	sll	v0,v0,0xa
  406310:	afa40018 	sw	a0,24(sp)
  406314:	12000002 	beqz	s0,406320 <_init+0x4c34>
  406318:	8fa40018 	lw	a0,24(sp)
  40631c:	ae040000 	sw	a0,0(s0)
  406320:	8fbf0024 	lw	ra,36(sp)
  406324:	8fb00020 	lw	s0,32(sp)
  406328:	03e00008 	jr	ra
  40632c:	27bd0028 	addiu	sp,sp,40
  406330:	3c020048 	lui	v0,0x48
  406334:	904285cc 	lbu	v0,-31284(v0)
  406338:	27bdfda0 	addiu	sp,sp,-608
  40633c:	27a40039 	addiu	a0,sp,57
  406340:	00002821 	move	a1,zero
  406344:	240601ff 	li	a2,511
  406348:	afbf025c 	sw	ra,604(sp)
  40634c:	afb10244 	sw	s1,580(sp)
  406350:	afb60258 	sw	s6,600(sp)
  406354:	afb50254 	sw	s5,596(sp)
  406358:	afb40250 	sw	s4,592(sp)
  40635c:	afb3024c 	sw	s3,588(sp)
  406360:	afb20248 	sw	s2,584(sp)
  406364:	afb00240 	sw	s0,576(sp)
  406368:	a3a20038 	sb	v0,56(sp)
  40636c:	0c1258ec 	jal	4963b0 <memset@plt>
  406370:	3c110047 	lui	s1,0x47
  406374:	3c050048 	lui	a1,0x48
  406378:	26246078 	addiu	a0,s1,24696
  40637c:	0c125814 	jal	496050 <fopen@plt>
  406380:	24a54aec 	addiu	a1,a1,19180
  406384:	104000ea 	beqz	v0,406730 <_init+0x5044>
  406388:	24050001 	li	a1,1
  40638c:	27a40038 	addiu	a0,sp,56
  406390:	24060200 	li	a2,512
  406394:	00403821 	move	a3,v0
  406398:	0c125880 	jal	496200 <fread@plt>
  40639c:	00408021 	move	s0,v0
  4063a0:	184000bb 	blez	v0,406690 <_init+0x4fa4>
  4063a4:	00000000 	nop
  4063a8:	0c125948 	jal	496520 <fclose@plt>
  4063ac:	02002021 	move	a0,s0
  4063b0:	3c050047 	lui	a1,0x47
  4063b4:	27a40038 	addiu	a0,sp,56
  4063b8:	0c1257f0 	jal	495fc0 <strstr@plt>
  4063bc:	24a560bc 	addiu	a1,a1,24764
  4063c0:	104000e8 	beqz	v0,406764 <_init+0x5078>
  4063c4:	00000000 	nop
  4063c8:	24440007 	addiu	a0,v0,7
  4063cc:	0c1018a3 	jal	40628c <_init+0x4ba0>
  4063d0:	27a50238 	addiu	a1,sp,568
  4063d4:	8fa40238 	lw	a0,568(sp)
  4063d8:	00408021 	move	s0,v0
  4063dc:	24020040 	li	v0,64
  4063e0:	80830000 	lb	v1,0(a0)
  4063e4:	10620032 	beq	v1,v0,4064b0 <_init+0x4dc4>
  4063e8:	24840001 	addiu	a0,a0,1
  4063ec:	0c11ca4c 	jal	472930 <_init+0x71244>
  4063f0:	3c130047 	lui	s3,0x47
  4063f4:	2403111d 	li	v1,4381
  4063f8:	afa30014 	sw	v1,20(sp)
  4063fc:	3c120048 	lui	s2,0x48
  406400:	3c030047 	lui	v1,0x47
  406404:	246360c4 	addiu	v1,v1,24772
  406408:	26735e78 	addiu	s3,s3,24184
  40640c:	265287dc 	addiu	s2,s2,-30756
  406410:	3c140047 	lui	s4,0x47
  406414:	afb30010 	sw	s3,16(sp)
  406418:	afb20018 	sw	s2,24(sp)
  40641c:	afa3001c 	sw	v1,28(sp)
  406420:	afb00020 	sw	s0,32(sp)
  406424:	afa00024 	sw	zero,36(sp)
  406428:	24040003 	li	a0,3
  40642c:	00402821 	move	a1,v0
  406430:	24060002 	li	a2,2
  406434:	26875e70 	addiu	a3,s4,24176
  406438:	0c11cb29 	jal	472ca4 <_init+0x715b8>
  40643c:	0000a821 	move	s5,zero
  406440:	0c11ca4c 	jal	472930 <_init+0x71244>
  406444:	00000000 	nop
  406448:	24031121 	li	v1,4385
  40644c:	afa30014 	sw	v1,20(sp)
  406450:	3c030047 	lui	v1,0x47
  406454:	246360e4 	addiu	v1,v1,24804
  406458:	00402821 	move	a1,v0
  40645c:	afb30010 	sw	s3,16(sp)
  406460:	afb20018 	sw	s2,24(sp)
  406464:	afa3001c 	sw	v1,28(sp)
  406468:	afb20020 	sw	s2,32(sp)
  40646c:	afb50024 	sw	s5,36(sp)
  406470:	afb00028 	sw	s0,40(sp)
  406474:	24040006 	li	a0,6
  406478:	24060002 	li	a2,2
  40647c:	0c11cb29 	jal	472ca4 <_init+0x715b8>
  406480:	26875e70 	addiu	a3,s4,24176
  406484:	2402ffff 	li	v0,-1
  406488:	8fbf025c 	lw	ra,604(sp)
  40648c:	8fb60258 	lw	s6,600(sp)
  406490:	8fb50254 	lw	s5,596(sp)
  406494:	8fb40250 	lw	s4,592(sp)
  406498:	8fb3024c 	lw	s3,588(sp)
  40649c:	8fb20248 	lw	s2,584(sp)
  4064a0:	8fb10244 	lw	s1,580(sp)
  4064a4:	8fb00240 	lw	s0,576(sp)
  4064a8:	03e00008 	jr	ra
  4064ac:	27bd0260 	addiu	sp,sp,608
  4064b0:	0c1018a3 	jal	40628c <_init+0x4ba0>
  4064b4:	00002821 	move	a1,zero
  4064b8:	0c11ca4c 	jal	472930 <_init+0x71244>
  4064bc:	00408821 	move	s1,v0
  4064c0:	2403111d 	li	v1,4381
  4064c4:	afa30014 	sw	v1,20(sp)
  4064c8:	3c130047 	lui	s3,0x47
  4064cc:	3c120048 	lui	s2,0x48
  4064d0:	3c030047 	lui	v1,0x47
  4064d4:	246360c4 	addiu	v1,v1,24772
  4064d8:	26735e78 	addiu	s3,s3,24184
  4064dc:	265287dc 	addiu	s2,s2,-30756
  4064e0:	3c140047 	lui	s4,0x47
  4064e4:	afb30010 	sw	s3,16(sp)
  4064e8:	afb20018 	sw	s2,24(sp)
  4064ec:	afa3001c 	sw	v1,28(sp)
  4064f0:	afb00020 	sw	s0,32(sp)
  4064f4:	afb10024 	sw	s1,36(sp)
  4064f8:	24040003 	li	a0,3
  4064fc:	00402821 	move	a1,v0
  406500:	24060002 	li	a2,2
  406504:	26875e70 	addiu	a3,s4,24176
  406508:	0c11cb29 	jal	472ca4 <_init+0x715b8>
  40650c:	0220a821 	move	s5,s1
  406510:	1220ffcb 	beqz	s1,406440 <_init+0x4d54>
  406514:	00000000 	nop
  406518:	1200ffc9 	beqz	s0,406440 <_init+0x4d54>
  40651c:	00000000 	nop
  406520:	3c150047 	lui	s5,0x47
  406524:	26a46108 	addiu	a0,s5,24840
  406528:	0c1258b0 	jal	4962c0 <open@plt>
  40652c:	24050002 	li	a1,2
  406530:	1840006e 	blez	v0,4066ec <_init+0x5000>
  406534:	00002021 	move	a0,zero
  406538:	afa20010 	sw	v0,16(sp)
  40653c:	afb10014 	sw	s1,20(sp)
  406540:	02002821 	move	a1,s0
  406544:	24060003 	li	a2,3
  406548:	0c1258c0 	jal	496300 <mmap@plt>
  40654c:	24070001 	li	a3,1
  406550:	1040003f 	beqz	v0,406650 <_init+0x4f64>
  406554:	3c04ffed 	lui	a0,0xffed
  406558:	3c05004c 	lui	a1,0x4c
  40655c:	24847200 	addiu	a0,a0,29184
  406560:	24a39d3c 	addiu	v1,a1,-25284
  406564:	02042021 	addu	a0,s0,a0
  406568:	00443021 	addu	a2,v0,a0
  40656c:	ac620004 	sw	v0,4(v1)
  406570:	ac620018 	sw	v0,24(v1)
  406574:	24020001 	li	v0,1
  406578:	ac620020 	sw	v0,32(v1)
  40657c:	3c020012 	lui	v0,0x12
  406580:	02243821 	addu	a3,s1,a0
  406584:	ac700008 	sw	s0,8(v1)
  406588:	34428e00 	ori	v0,v0,0x8e00
  40658c:	3c10004c 	lui	s0,0x4c
  406590:	3c160047 	lui	s6,0x47
  406594:	acb19d3c 	sw	s1,-25284(a1)
  406598:	ac710014 	sw	s1,20(v1)
  40659c:	ac60000c 	sw	zero,12(v1)
  4065a0:	ac600010 	sw	zero,16(v1)
  4065a4:	ac600024 	sw	zero,36(v1)
  4065a8:	ac64001c 	sw	a0,28(v1)
  4065ac:	ac670028 	sw	a3,40(v1)
  4065b0:	ac66002c 	sw	a2,44(v1)
  4065b4:	ac620030 	sw	v0,48(v1)
  4065b8:	26109d50 	addiu	s0,s0,-25264
  4065bc:	00008821 	move	s1,zero
  4065c0:	26d66138 	addiu	s6,s6,24888
  4065c4:	2415114a 	li	s5,4426
  4065c8:	26945e70 	addiu	s4,s4,24176
  4065cc:	0c11ca4c 	jal	472930 <_init+0x71244>
  4065d0:	00000000 	nop
  4065d4:	8e050000 	lw	a1,0(s0)
  4065d8:	8e040004 	lw	a0,4(s0)
  4065dc:	8e030008 	lw	v1,8(s0)
  4065e0:	24060002 	li	a2,2
  4065e4:	afb10020 	sw	s1,32(sp)
  4065e8:	afa50024 	sw	a1,36(sp)
  4065ec:	afa40028 	sw	a0,40(sp)
  4065f0:	00402821 	move	a1,v0
  4065f4:	afb30010 	sw	s3,16(sp)
  4065f8:	afb50014 	sw	s5,20(sp)
  4065fc:	afb20018 	sw	s2,24(sp)
  406600:	afb6001c 	sw	s6,28(sp)
  406604:	afa3002c 	sw	v1,44(sp)
  406608:	24040004 	li	a0,4
  40660c:	02803821 	move	a3,s4
  406610:	0c11cb29 	jal	472ca4 <_init+0x715b8>
  406614:	26310001 	addiu	s1,s1,1
  406618:	24020002 	li	v0,2
  40661c:	1622ffeb 	bne	s1,v0,4065cc <_init+0x4ee0>
  406620:	26100014 	addiu	s0,s0,20
  406624:	8fbf025c 	lw	ra,604(sp)
  406628:	8fb60258 	lw	s6,600(sp)
  40662c:	8fb50254 	lw	s5,596(sp)
  406630:	8fb40250 	lw	s4,592(sp)
  406634:	8fb3024c 	lw	s3,588(sp)
  406638:	8fb20248 	lw	s2,584(sp)
  40663c:	8fb10244 	lw	s1,580(sp)
  406640:	8fb00240 	lw	s0,576(sp)
  406644:	00001021 	move	v0,zero
  406648:	03e00008 	jr	ra
  40664c:	27bd0260 	addiu	sp,sp,608
  406650:	0c11ca4c 	jal	472930 <_init+0x71244>
  406654:	00000000 	nop
  406658:	2403112e 	li	v1,4398
  40665c:	afa30014 	sw	v1,20(sp)
  406660:	3c030047 	lui	v1,0x47
  406664:	24636124 	addiu	v1,v1,24868
  406668:	00402821 	move	a1,v0
  40666c:	afb30010 	sw	s3,16(sp)
  406670:	afb20018 	sw	s2,24(sp)
  406674:	afa3001c 	sw	v1,28(sp)
  406678:	24040006 	li	a0,6
  40667c:	24060002 	li	a2,2
  406680:	0c11cb29 	jal	472ca4 <_init+0x715b8>
  406684:	26875e70 	addiu	a3,s4,24176
  406688:	1000ff7f 	b	406488 <_init+0x4d9c>
  40668c:	2402ffff 	li	v0,-1
  406690:	0c11ca4c 	jal	472930 <_init+0x71244>
  406694:	26316078 	addiu	s1,s1,24696
  406698:	3c040047 	lui	a0,0x47
  40669c:	24845e78 	addiu	a0,a0,24184
  4066a0:	3c030048 	lui	v1,0x48
  4066a4:	afa40010 	sw	a0,16(sp)
  4066a8:	246387dc 	addiu	v1,v1,-30756
  4066ac:	2404110b 	li	a0,4363
  4066b0:	afa40014 	sw	a0,20(sp)
  4066b4:	3c040047 	lui	a0,0x47
  4066b8:	afa30018 	sw	v1,24(sp)
  4066bc:	248460a4 	addiu	a0,a0,24740
  4066c0:	3c070047 	lui	a3,0x47
  4066c4:	afa4001c 	sw	a0,28(sp)
  4066c8:	00402821 	move	a1,v0
  4066cc:	afa30020 	sw	v1,32(sp)
  4066d0:	afb10024 	sw	s1,36(sp)
  4066d4:	24040006 	li	a0,6
  4066d8:	24060002 	li	a2,2
  4066dc:	0c11cb29 	jal	472ca4 <_init+0x715b8>
  4066e0:	24e75e70 	addiu	a3,a3,24176
  4066e4:	1000ff68 	b	406488 <_init+0x4d9c>
  4066e8:	2402ffff 	li	v0,-1
  4066ec:	0c11ca4c 	jal	472930 <_init+0x71244>
  4066f0:	26b56108 	addiu	s5,s5,24840
  4066f4:	24031128 	li	v1,4392
  4066f8:	afa30014 	sw	v1,20(sp)
  4066fc:	3c030047 	lui	v1,0x47
  406700:	24636114 	addiu	v1,v1,24852
  406704:	00402821 	move	a1,v0
  406708:	afb30010 	sw	s3,16(sp)
  40670c:	afb20018 	sw	s2,24(sp)
  406710:	afa3001c 	sw	v1,28(sp)
  406714:	afb50020 	sw	s5,32(sp)
  406718:	24040006 	li	a0,6
  40671c:	24060002 	li	a2,2
  406720:	0c11cb29 	jal	472ca4 <_init+0x715b8>
  406724:	26875e70 	addiu	a3,s4,24176
  406728:	1000ff57 	b	406488 <_init+0x4d9c>
  40672c:	2402ffff 	li	v0,-1
  406730:	0c11ca4c 	jal	472930 <_init+0x71244>
  406734:	26316078 	addiu	s1,s1,24696
  406738:	3c040047 	lui	a0,0x47
  40673c:	24845e78 	addiu	a0,a0,24184
  406740:	3c030048 	lui	v1,0x48
  406744:	afa40010 	sw	a0,16(sp)
  406748:	24041105 	li	a0,4357
  40674c:	246387dc 	addiu	v1,v1,-30756
  406750:	afa40014 	sw	a0,20(sp)
  406754:	3c040047 	lui	a0,0x47
  406758:	afa30018 	sw	v1,24(sp)
  40675c:	1000ffd8 	b	4066c0 <_init+0x4fd4>
  406760:	24846088 	addiu	a0,a0,24712
  406764:	0c11ca4c 	jal	472930 <_init+0x71244>
  406768:	26316078 	addiu	s1,s1,24696
  40676c:	3c040047 	lui	a0,0x47
  406770:	24845e78 	addiu	a0,a0,24184
  406774:	3c030048 	lui	v1,0x48
  406778:	afa40010 	sw	a0,16(sp)
  40677c:	246387dc 	addiu	v1,v1,-30756
  406780:	1000ffcb 	b	4066b0 <_init+0x4fc4>
  406784:	24041113 	li	a0,4371
  406788:	8c820004 	lw	v0,4(a0)
  40678c:	3c03004b 	lui	v1,0x4b
  406790:	8c636cd0 	lw	v1,27856(v1)
  406794:	8c420000 	lw	v0,0(v0)
  406798:	27bdfe30 	addiu	sp,sp,-464
  40679c:	8c630000 	lw	v1,0(v1)
  4067a0:	24420008 	addiu	v0,v0,8
  4067a4:	00021080 	sll	v0,v0,0x2
  4067a8:	00621021 	addu	v0,v1,v0
  4067ac:	8c420008 	lw	v0,8(v0)
  4067b0:	afb301b4 	sw	s3,436(sp)
  4067b4:	afb201b0 	sw	s2,432(sp)
  4067b8:	afbf01cc 	sw	ra,460(sp)
  4067bc:	afbe01c8 	sw	s8,456(sp)
  4067c0:	afb701c4 	sw	s7,452(sp)
  4067c4:	afb601c0 	sw	s6,448(sp)
  4067c8:	afb501bc 	sw	s5,444(sp)
  4067cc:	afb401b8 	sw	s4,440(sp)
  4067d0:	afb101ac 	sw	s1,428(sp)
  4067d4:	afb001a8 	sw	s0,424(sp)
  4067d8:	00809021 	move	s2,a0
  4067dc:	00a09821 	move	s3,a1
  4067e0:	afa201a0 	sw	v0,416(sp)
  4067e4:	10a000ab 	beqz	a1,406a94 <_init+0x53a8>
  4067e8:	afa00198 	sw	zero,408(sp)
  4067ec:	8ca20028 	lw	v0,40(a1)
  4067f0:	104003d1 	beqz	v0,407738 <_init+0x604c>
  4067f4:	00000000 	nop
  4067f8:	8ca3002c 	lw	v1,44(a1)
  4067fc:	106003ce 	beqz	v1,407738 <_init+0x604c>
  406800:	00000000 	nop
  406804:	8c8400d8 	lw	a0,216(a0)
  406808:	10800005 	beqz	a0,406820 <_init+0x5134>
  40680c:	26550124 	addiu	s5,s2,292
  406810:	8e4500dc 	lw	a1,220(s2)
  406814:	14a00176 	bnez	a1,406df0 <_init+0x5704>
  406818:	70831802 	mul	v1,a0,v1
  40681c:	26550124 	addiu	s5,s2,292
  406820:	0c125860 	jal	496180 <pthread_mutex_lock@plt>
  406824:	02a02021 	move	a0,s5
  406828:	8e630028 	lw	v1,40(s3)
  40682c:	8e62002c 	lw	v0,44(s3)
  406830:	264500dc 	addiu	a1,s2,220
  406834:	ae4300d8 	sw	v1,216(s2)
  406838:	264400d8 	addiu	a0,s2,216
  40683c:	0c1119aa 	jal	4466a8 <_init+0x44fbc>
  406840:	ae4200dc 	sw	v0,220(s2)
  406844:	0c1257ec 	jal	495fb0 <pthread_mutex_unlock@plt>
  406848:	02a02021 	move	a0,s5
  40684c:	0c11ca4c 	jal	472930 <_init+0x71244>
  406850:	3c110047 	lui	s1,0x47
  406854:	2403022b 	li	v1,555
  406858:	afa30014 	sw	v1,20(sp)
  40685c:	3c030048 	lui	v1,0x48
  406860:	24638858 	addiu	v1,v1,-30632
  406864:	afa30018 	sw	v1,24(sp)
  406868:	3c030047 	lui	v1,0x47
  40686c:	26315e78 	addiu	s1,s1,24184
  406870:	246361a4 	addiu	v1,v1,24996
  406874:	afb10010 	sw	s1,16(sp)
  406878:	afa3001c 	sw	v1,28(sp)
  40687c:	8e630028 	lw	v1,40(s3)
  406880:	3c100047 	lui	s0,0x47
  406884:	00402821 	move	a1,v0
  406888:	afa30020 	sw	v1,32(sp)
  40688c:	8e63002c 	lw	v1,44(s3)
  406890:	24060002 	li	a2,2
  406894:	26075e70 	addiu	a3,s0,24176
  406898:	24040004 	li	a0,4
  40689c:	0c11cb29 	jal	472ca4 <_init+0x715b8>
  4068a0:	afa30024 	sw	v1,36(sp)
  4068a4:	8e45003c 	lw	a1,60(s2)
  4068a8:	8e430040 	lw	v1,64(s2)
  4068ac:	8e420038 	lw	v0,56(s2)
  4068b0:	02a02021 	move	a0,s5
  4068b4:	70a31802 	mul	v1,a1,v1
  4068b8:	24100001 	li	s0,1
  4068bc:	0062001b 	divu	zero,v1,v0
  4068c0:	004001f4 	teq	v0,zero,0x7
  4068c4:	0c125860 	jal	496180 <pthread_mutex_lock@plt>
  4068c8:	00008812 	mflo	s1
  4068cc:	8e4600e0 	lw	a2,224(s2)
  4068d0:	8e4200e4 	lw	v0,228(s2)
  4068d4:	8e4400dc 	lw	a0,220(s2)
  4068d8:	8e4500d8 	lw	a1,216(s2)
  4068dc:	70c43002 	mul	a2,a2,a0
  4068e0:	70451002 	mul	v0,v0,a1
  4068e4:	0046102b 	sltu	v0,v0,a2
  4068e8:	14400242 	bnez	v0,4071f4 <_init+0x5b08>
  4068ec:	00000000 	nop
  4068f0:	8e4300e0 	lw	v1,224(s2)
  4068f4:	8e4200e4 	lw	v0,228(s2)
  4068f8:	ae430038 	sw	v1,56(s2)
  4068fc:	ae42003c 	sw	v0,60(s2)
  406900:	0c1257ec 	jal	495fb0 <pthread_mutex_unlock@plt>
  406904:	02a02021 	move	a0,s5
  406908:	26440038 	addiu	a0,s2,56
  40690c:	0c1119aa 	jal	4466a8 <_init+0x44fbc>
  406910:	2645003c 	addiu	a1,s2,60
  406914:	8e430038 	lw	v1,56(s2)
  406918:	8e42003c 	lw	v0,60(s2)
  40691c:	8e44034c 	lw	a0,844(s2)
  406920:	24050005 	li	a1,5
  406924:	27a600f0 	addiu	a2,sp,240
  406928:	afa300f4 	sw	v1,244(sp)
  40692c:	0c112cf1 	jal	44b3c4 <_init+0x49cd8>
  406930:	afa200f8 	sw	v0,248(sp)
  406934:	0440046b 	bltz	v0,407ae4 <_init+0x63f8>
  406938:	00000000 	nop
  40693c:	0c125860 	jal	496180 <pthread_mutex_lock@plt>
  406940:	02a02021 	move	a0,s5
  406944:	8e420038 	lw	v0,56(s2)
  406948:	8e44003c 	lw	a0,60(s2)
  40694c:	72228802 	mul	s1,s1,v0
  406950:	0224001b 	divu	zero,s1,a0
  406954:	008001f4 	teq	a0,zero,0x7
  406958:	00008810 	mfhi	s1
  40695c:	1620022e 	bnez	s1,407218 <_init+0x5b2c>
  406960:	00001012 	mflo	v0
  406964:	ae4200e8 	sw	v0,232(s2)
  406968:	24110001 	li	s1,1
  40696c:	8e44034c 	lw	a0,844(s2)
  406970:	ae420040 	sw	v0,64(s2)
  406974:	24050007 	li	a1,7
  406978:	27a60190 	addiu	a2,sp,400
  40697c:	0c112cf1 	jal	44b3c4 <_init+0x49cd8>
  406980:	afa20190 	sw	v0,400(sp)
  406984:	04400425 	bltz	v0,407a1c <_init+0x6330>
  406988:	02a02021 	move	a0,s5
  40698c:	0c1257ec 	jal	495fb0 <pthread_mutex_unlock@plt>
  406990:	00000000 	nop
  406994:	24020001 	li	v0,1
  406998:	12020256 	beq	s0,v0,4072f4 <_init+0x5c08>
  40699c:	00000000 	nop
  4069a0:	1622003c 	bne	s1,v0,406a94 <_init+0x53a8>
  4069a4:	ae4200f0 	sw	v0,240(s2)
  4069a8:	8e5700d8 	lw	s7,216(s2)
  4069ac:	8e56003c 	lw	s6,60(s2)
  4069b0:	8e4900dc 	lw	t1,220(s2)
  4069b4:	8e420038 	lw	v0,56(s2)
  4069b8:	72d73002 	mul	a2,s6,s7
  4069bc:	afb70178 	sw	s7,376(sp)
  4069c0:	afa9017c 	sw	t1,380(sp)
  4069c4:	afa20170 	sw	v0,368(sp)
  4069c8:	2cc30041 	sltiu	v1,a2,65
  4069cc:	106003ed 	beqz	v1,407984 <_init+0x6298>
  4069d0:	afb60174 	sw	s6,372(sp)
  4069d4:	71221002 	mul	v0,t1,v0
  4069d8:	000619c0 	sll	v1,a2,0x7
  4069dc:	00064880 	sll	t1,a2,0x2
  4069e0:	00694823 	subu	t1,v1,t1
  4069e4:	01264821 	addu	t1,t1,a2
  4069e8:	000948c0 	sll	t1,t1,0x3
  4069ec:	0122001b 	divu	zero,t1,v0
  4069f0:	004001f4 	teq	v0,zero,0x7
  4069f4:	10c00389 	beqz	a2,40781c <_init+0x6130>
  4069f8:	00004812 	mflo	t1
  4069fc:	3c0a1062 	lui	t2,0x1062
  406a00:	00004021 	move	t0,zero
  406a04:	00003821 	move	a3,zero
  406a08:	00001821 	move	v1,zero
  406a0c:	00008021 	move	s0,zero
  406a10:	00008821 	move	s1,zero
  406a14:	10000004 	b	406a28 <_init+0x533c>
  406a18:	254a4dd3 	addiu	t2,t2,19923
  406a1c:	24630001 	addiu	v1,v1,1
  406a20:	10660016 	beq	v1,a2,406a7c <_init+0x5390>
  406a24:	00000000 	nop
  406a28:	001027c2 	srl	a0,s0,0x1f
  406a2c:	00111040 	sll	v0,s1,0x1
  406a30:	00102840 	sll	a1,s0,0x1
  406a34:	00821025 	or	v0,a0,v0
  406a38:	00a08021 	move	s0,a1
  406a3c:	1467fff7 	bne	v1,a3,406a1c <_init+0x5330>
  406a40:	00408821 	move	s1,v0
  406a44:	25080001 	addiu	t0,t0,1
  406a48:	71283802 	mul	a3,t1,t0
  406a4c:	24a40001 	addiu	a0,a1,1
  406a50:	0085282b 	sltu	a1,a0,a1
  406a54:	00a28821 	addu	s1,a1,v0
  406a58:	24630001 	addiu	v1,v1,1
  406a5c:	00808021 	move	s0,a0
  406a60:	24e201f4 	addiu	v0,a3,500
  406a64:	004a0018 	mult	v0,t2
  406a68:	000217c3 	sra	v0,v0,0x1f
  406a6c:	00003810 	mfhi	a3
  406a70:	00073983 	sra	a3,a3,0x6
  406a74:	1466ffec 	bne	v1,a2,406a28 <_init+0x533c>
  406a78:	00e23823 	subu	a3,a3,v0
  406a7c:	0c125860 	jal	496180 <pthread_mutex_lock@plt>
  406a80:	02a02021 	move	a0,s5
  406a84:	ae5000d0 	sw	s0,208(s2)
  406a88:	ae5100d4 	sw	s1,212(s2)
  406a8c:	0c1257ec 	jal	495fb0 <pthread_mutex_unlock@plt>
  406a90:	02a02021 	move	a0,s5
  406a94:	8e45003c 	lw	a1,60(s2)
  406a98:	8e4400d8 	lw	a0,216(s2)
  406a9c:	8e4300d4 	lw	v1,212(s2)
  406aa0:	8e4200d0 	lw	v0,208(s2)
  406aa4:	70a42002 	mul	a0,a1,a0
  406aa8:	00033840 	sll	a3,v1,0x1
  406aac:	00024fc2 	srl	t1,v0,0x1f
  406ab0:	00025040 	sll	t2,v0,0x1
  406ab4:	24060001 	li	a2,1
  406ab8:	01274825 	or	t1,t1,a3
  406abc:	2485ffff 	addiu	a1,a0,-1
  406ac0:	00054027 	nor	t0,zero,a1
  406ac4:	01074004 	sllv	t0,a3,t0
  406ac8:	00a21006 	srlv	v0,v0,a1
  406acc:	30a70020 	andi	a3,a1,0x20
  406ad0:	00a31806 	srlv	v1,v1,a1
  406ad4:	01021025 	or	v0,t0,v0
  406ad8:	30850020 	andi	a1,a0,0x20
  406adc:	00862004 	sllv	a0,a2,a0
  406ae0:	0067100b 	movn	v0,v1,a3
  406ae4:	00804021 	move	t0,a0
  406ae8:	0005200b 	movn	a0,zero,a1
  406aec:	00042027 	nor	a0,zero,a0
  406af0:	0005400a 	movz	t0,zero,a1
  406af4:	0007180b 	movn	v1,zero,a3
  406af8:	004a1025 	or	v0,v0,t2
  406afc:	00441024 	and	v0,v0,a0
  406b00:	00691825 	or	v1,v1,t1
  406b04:	00082027 	nor	a0,zero,t0
  406b08:	00641824 	and	v1,v1,a0
  406b0c:	30440001 	andi	a0,v0,0x1
  406b10:	ae4200d0 	sw	v0,208(s2)
  406b14:	1486033d 	bne	a0,a2,40780c <_init+0x6120>
  406b18:	ae4300d4 	sw	v1,212(s2)
  406b1c:	92420070 	lbu	v0,112(s2)
  406b20:	1040009c 	beqz	v0,406d94 <_init+0x56a8>
  406b24:	00000000 	nop
  406b28:	8e420074 	lw	v0,116(s2)
  406b2c:	1040009d 	beqz	v0,406da4 <_init+0x56b8>
  406b30:	2443ffff 	addiu	v1,v0,-1
  406b34:	2c630002 	sltiu	v1,v1,2
  406b38:	1460027c 	bnez	v1,40752c <_init+0x5e40>
  406b3c:	00000000 	nop
  406b40:	8e4206f0 	lw	v0,1776(s2)
  406b44:	104000bf 	beqz	v0,406e44 <_init+0x5758>
  406b48:	0000a021 	move	s4,zero
  406b4c:	3c1e0047 	lui	s8,0x47
  406b50:	3c100048 	lui	s0,0x48
  406b54:	3c160047 	lui	s6,0x47
  406b58:	26510708 	addiu	s1,s2,1800
  406b5c:	265507c0 	addiu	s5,s2,1984
  406b60:	27de5e78 	addiu	s8,s8,24184
  406b64:	2610883c 	addiu	s0,s0,-30660
  406b68:	3c170047 	lui	s7,0x47
  406b6c:	10000058 	b	406cd0 <_init+0x55e4>
  406b70:	26d65e70 	addiu	s6,s6,24176
  406b74:	8e450728 	lw	a1,1832(s2)
  406b78:	24a40020 	addiu	a0,a1,32
  406b7c:	0c113e35 	jal	44f8d4 <_init+0x4e1e8>
  406b80:	24a50038 	addiu	a1,a1,56
  406b84:	8fa60198 	lw	a2,408(sp)
  406b88:	10c00288 	beqz	a2,4075ac <_init+0x5ec0>
  406b8c:	00000000 	nop
  406b90:	8e4207a4 	lw	v0,1956(s2)
  406b94:	104000ab 	beqz	v0,406e44 <_init+0x5758>
  406b98:	8cd40008 	lw	s4,8(a2)
  406b9c:	8e820000 	lw	v0,0(s4)
  406ba0:	8e690020 	lw	t1,32(s3)
  406ba4:	8e4a07ac 	lw	t2,1964(s2)
  406ba8:	8c470020 	lw	a3,32(v0)
  406bac:	8e630024 	lw	v1,36(s3)
  406bb0:	01272823 	subu	a1,t1,a3
  406bb4:	000527c3 	sra	a0,a1,0x1f
  406bb8:	00852826 	xor	a1,a0,a1
  406bbc:	00a42023 	subu	a0,a1,a0
  406bc0:	00042fc3 	sra	a1,a0,0x1f
  406bc4:	0145582b 	sltu	t3,t2,a1
  406bc8:	1160028f 	beqz	t3,407608 <_init+0x5f1c>
  406bcc:	8c420024 	lw	v0,36(v0)
  406bd0:	0062202a 	slt	a0,v1,v0
  406bd4:	14800297 	bnez	a0,407634 <_init+0x5f48>
  406bd8:	00000000 	nop
  406bdc:	10430293 	beq	v0,v1,40762c <_init+0x5f40>
  406be0:	0127202b 	sltu	a0,t1,a3
  406be4:	0043202a 	slt	a0,v0,v1
  406be8:	108002bf 	beqz	a0,4076e8 <_init+0x5ffc>
  406bec:	00000000 	nop
  406bf0:	0c11ca4c 	jal	472930 <_init+0x71244>
  406bf4:	00000000 	nop
  406bf8:	8e840000 	lw	a0,0(s4)
  406bfc:	8e630020 	lw	v1,32(s3)
  406c00:	8e670024 	lw	a3,36(s3)
  406c04:	8c860020 	lw	a2,32(a0)
  406c08:	8c850024 	lw	a1,36(a0)
  406c0c:	2409031d 	li	t1,797
  406c10:	00662023 	subu	a0,v1,a2
  406c14:	00e55823 	subu	t3,a3,a1
  406c18:	0064502b 	sltu	t2,v1,a0
  406c1c:	016a5023 	subu	t2,t3,t2
  406c20:	26eb6378 	addiu	t3,s7,25464
  406c24:	afa7002c 	sw	a3,44(sp)
  406c28:	afa60030 	sw	a2,48(sp)
  406c2c:	afa50034 	sw	a1,52(sp)
  406c30:	afa40038 	sw	a0,56(sp)
  406c34:	afbe0010 	sw	s8,16(sp)
  406c38:	afa90014 	sw	t1,20(sp)
  406c3c:	afb00018 	sw	s0,24(sp)
  406c40:	afab001c 	sw	t3,28(sp)
  406c44:	afb00020 	sw	s0,32(sp)
  406c48:	afa90024 	sw	t1,36(sp)
  406c4c:	afa30028 	sw	v1,40(sp)
  406c50:	afaa003c 	sw	t2,60(sp)
  406c54:	24040003 	li	a0,3
  406c58:	00402821 	move	a1,v0
  406c5c:	24060002 	li	a2,2
  406c60:	0c11cb29 	jal	472ca4 <_init+0x715b8>
  406c64:	02c03821 	move	a3,s6
  406c68:	8e990008 	lw	t9,8(s4)
  406c6c:	13200004 	beqz	t9,406c80 <_init+0x5594>
  406c70:	00000000 	nop
  406c74:	8e840000 	lw	a0,0(s4)
  406c78:	0320f809 	jalr	t9
  406c7c:	8e850004 	lw	a1,4(s4)
  406c80:	a2800000 	sb	zero,0(s4)
  406c84:	a2800001 	sb	zero,1(s4)
  406c88:	a2800002 	sb	zero,2(s4)
  406c8c:	a2800003 	sb	zero,3(s4)
  406c90:	a2800004 	sb	zero,4(s4)
  406c94:	a2800005 	sb	zero,5(s4)
  406c98:	a2800006 	sb	zero,6(s4)
  406c9c:	a2800007 	sb	zero,7(s4)
  406ca0:	a2800008 	sb	zero,8(s4)
  406ca4:	a2800009 	sb	zero,9(s4)
  406ca8:	a280000a 	sb	zero,10(s4)
  406cac:	a280000b 	sb	zero,11(s4)
  406cb0:	8e440728 	lw	a0,1832(s2)
  406cb4:	8fa60198 	lw	a2,408(sp)
  406cb8:	0c113e1e 	jal	44f878 <_init+0x4e18c>
  406cbc:	24850018 	addiu	a1,a0,24
  406cc0:	0c125800 	jal	496000 <sem_post@plt>
  406cc4:	264406f8 	addiu	a0,s2,1784
  406cc8:	2402000a 	li	v0,10
  406ccc:	ae4206f4 	sw	v0,1780(s2)
  406cd0:	02202021 	move	a0,s1
  406cd4:	0c113dcc 	jal	44f730 <_init+0x4e044>
  406cd8:	02a02821 	move	a1,s5
  406cdc:	0441ffa5 	bgez	v0,406b74 <_init+0x5488>
  406ce0:	27a60198 	addiu	a2,sp,408
  406ce4:	0c11ca4c 	jal	472930 <_init+0x71244>
  406ce8:	00000000 	nop
  406cec:	3c050047 	lui	a1,0x47
  406cf0:	24a55e78 	addiu	a1,a1,24184
  406cf4:	afa50010 	sw	a1,16(sp)
  406cf8:	3c040048 	lui	a0,0x48
  406cfc:	3c050047 	lui	a1,0x47
  406d00:	2484883c 	addiu	a0,a0,-30660
  406d04:	24030306 	li	v1,774
  406d08:	24a562a4 	addiu	a1,a1,25252
  406d0c:	afa40018 	sw	a0,24(sp)
  406d10:	afa5001c 	sw	a1,28(sp)
  406d14:	afa40020 	sw	a0,32(sp)
  406d18:	afa30014 	sw	v1,20(sp)
  406d1c:	afa30024 	sw	v1,36(sp)
  406d20:	8e670024 	lw	a3,36(s3)
  406d24:	8e660020 	lw	a2,32(s3)
  406d28:	24040006 	li	a0,6
  406d2c:	afa7002c 	sw	a3,44(sp)
  406d30:	3c070047 	lui	a3,0x47
  406d34:	afa60028 	sw	a2,40(sp)
  406d38:	00402821 	move	a1,v0
  406d3c:	24060002 	li	a2,2
  406d40:	0c11cb29 	jal	472ca4 <_init+0x715b8>
  406d44:	24e75e70 	addiu	a3,a3,24176
  406d48:	8e500620 	lw	s0,1568(s2)
  406d4c:	1e0002a8 	bgtz	s0,4077f0 <_init+0x6104>
  406d50:	00000000 	nop
  406d54:	8e420624 	lw	v0,1572(s2)
  406d58:	144001e7 	bnez	v0,4074f8 <_init+0x5e0c>
  406d5c:	8fbf01cc 	lw	ra,460(sp)
  406d60:	8e420158 	lw	v0,344(s2)
  406d64:	144001e4 	bnez	v0,4074f8 <_init+0x5e0c>
  406d68:	00000000 	nop
  406d6c:	8e420160 	lw	v0,352(s2)
  406d70:	144001e1 	bnez	v0,4074f8 <_init+0x5e0c>
  406d74:	00000000 	nop
  406d78:	8e420164 	lw	v0,356(s2)
  406d7c:	144000d8 	bnez	v0,4070e0 <_init+0x59f4>
  406d80:	2410ffff 	li	s0,-1
  406d84:	0c10f329 	jal	43cca4 <_init+0x3b5b8>
  406d88:	8e64001c 	lw	a0,28(s3)
  406d8c:	100000d4 	b	4070e0 <_init+0x59f4>
  406d90:	8fbf01cc 	lw	ra,460(sp)
  406d94:	0c1015c8 	jal	405720 <_init+0x4034>
  406d98:	02402021 	move	a0,s2
  406d9c:	1c40ff62 	bgtz	v0,406b28 <_init+0x543c>
  406da0:	00000000 	nop
  406da4:	8e500620 	lw	s0,1568(s2)
  406da8:	1a000005 	blez	s0,406dc0 <_init+0x56d4>
  406dac:	8e420158 	lw	v0,344(s2)
  406db0:	10400123 	beqz	v0,407240 <_init+0x5b54>
  406db4:	00000000 	nop
  406db8:	ae400620 	sw	zero,1568(s2)
  406dbc:	ae400624 	sw	zero,1572(s2)
  406dc0:	1440ff5f 	bnez	v0,406b40 <_init+0x5454>
  406dc4:	00000000 	nop
  406dc8:	8e420160 	lw	v0,352(s2)
  406dcc:	1440ff5c 	bnez	v0,406b40 <_init+0x5454>
  406dd0:	00000000 	nop
  406dd4:	8e420164 	lw	v0,356(s2)
  406dd8:	1440ff59 	bnez	v0,406b40 <_init+0x5454>
  406ddc:	00000000 	nop
  406de0:	0c10f304 	jal	43cc10 <_init+0x3b524>
  406de4:	8e64001c 	lw	a0,28(s3)
  406de8:	1000ff56 	b	406b44 <_init+0x5458>
  406dec:	8e4206f0 	lw	v0,1776(s2)
  406df0:	70a21002 	mul	v0,a1,v0
  406df4:	1462fe8a 	bne	v1,v0,406820 <_init+0x5134>
  406df8:	26550124 	addiu	s5,s2,292
  406dfc:	02a02021 	move	a0,s5
  406e00:	8e500040 	lw	s0,64(s2)
  406e04:	8e56003c 	lw	s6,60(s2)
  406e08:	0c125860 	jal	496180 <pthread_mutex_lock@plt>
  406e0c:	8e510038 	lw	s1,56(s2)
  406e10:	8e4200e4 	lw	v0,228(s2)
  406e14:	8e4600e0 	lw	a2,224(s2)
  406e18:	8e440038 	lw	a0,56(s2)
  406e1c:	8e43003c 	lw	v1,60(s2)
  406e20:	70442002 	mul	a0,v0,a0
  406e24:	70c31802 	mul	v1,a2,v1
  406e28:	10830118 	beq	a0,v1,40728c <_init+0x5ba0>
  406e2c:	72d01802 	mul	v1,s6,s0
  406e30:	00008021 	move	s0,zero
  406e34:	0071001b 	divu	zero,v1,s1
  406e38:	022001f4 	teq	s1,zero,0x7
  406e3c:	1000fea5 	b	4068d4 <_init+0x51e8>
  406e40:	00008812 	mflo	s1
  406e44:	8e440804 	lw	a0,2052(s2)
  406e48:	1080012c 	beqz	a0,4072fc <_init+0x5c10>
  406e4c:	00000000 	nop
  406e50:	24840001 	addiu	a0,a0,1
  406e54:	ae440804 	sw	a0,2052(s2)
  406e58:	0c101608 	jal	405820 <_init+0x4134>
  406e5c:	02402021 	move	a0,s2
  406e60:	10400131 	beqz	v0,407328 <_init+0x5c3c>
  406e64:	00408821 	move	s1,v0
  406e68:	26500124 	addiu	s0,s2,292
  406e6c:	0c125860 	jal	496180 <pthread_mutex_lock@plt>
  406e70:	02002021 	move	a0,s0
  406e74:	ae4000c8 	sw	zero,200(s2)
  406e78:	0c1257ec 	jal	495fb0 <pthread_mutex_unlock@plt>
  406e7c:	02002021 	move	a0,s0
  406e80:	8e4206f0 	lw	v0,1776(s2)
  406e84:	144000a4 	bnez	v0,407118 <_init+0x5a2c>
  406e88:	2405fff0 	li	a1,-16
  406e8c:	8e63000c 	lw	v1,12(s3)
  406e90:	8e640008 	lw	a0,8(s3)
  406e94:	2465000f 	addiu	a1,v1,15
  406e98:	2484000f 	addiu	a0,a0,15
  406e9c:	2403fff0 	li	v1,-16
  406ea0:	00a32824 	and	a1,a1,v1
  406ea4:	00831824 	and	v1,a0,v1
  406ea8:	70a32002 	mul	a0,a1,v1
  406eac:	8e62001c 	lw	v0,28(s3)
  406eb0:	ae4203b0 	sw	v0,944(s2)
  406eb4:	00821821 	addu	v1,a0,v0
  406eb8:	0c101430 	jal	4050c0 <_init+0x39d4>
  406ebc:	ae4303b4 	sw	v1,948(s2)
  406ec0:	28420003 	slti	v0,v0,3
  406ec4:	1040016e 	beqz	v0,407480 <_init+0x5d94>
  406ec8:	00000000 	nop
  406ecc:	ae4003c4 	sw	zero,964(s2)
  406ed0:	ae4003c8 	sw	zero,968(s2)
  406ed4:	ae4003d0 	sw	zero,976(s2)
  406ed8:	ae4003cc 	sw	zero,972(s2)
  406edc:	27b50070 	addiu	s5,sp,112
  406ee0:	8e430610 	lw	v1,1552(s2)
  406ee4:	8e480614 	lw	t0,1556(s2)
  406ee8:	8e660020 	lw	a2,32(s3)
  406eec:	24650001 	addiu	a1,v1,1
  406ef0:	8e670024 	lw	a3,36(s3)
  406ef4:	00a3202b 	sltu	a0,a1,v1
  406ef8:	ae450610 	sw	a1,1552(s2)
  406efc:	8e450630 	lw	a1,1584(s2)
  406f00:	00001021 	move	v0,zero
  406f04:	00882021 	addu	a0,a0,t0
  406f08:	ae430360 	sw	v1,864(s2)
  406f0c:	00001821 	move	v1,zero
  406f10:	ae440614 	sw	a0,1556(s2)
  406f14:	a2400498 	sb	zero,1176(s2)
  406f18:	a2400499 	sb	zero,1177(s2)
  406f1c:	a240049a 	sb	zero,1178(s2)
  406f20:	a240049b 	sb	zero,1179(s2)
  406f24:	a24004a0 	sb	zero,1184(s2)
  406f28:	a24004a1 	sb	zero,1185(s2)
  406f2c:	a24004a2 	sb	zero,1186(s2)
  406f30:	a24004a3 	sb	zero,1187(s2)
  406f34:	ae460370 	sw	a2,880(s2)
  406f38:	ae470374 	sw	a3,884(s2)
  406f3c:	ae480364 	sw	t0,868(s2)
  406f40:	afa20180 	sw	v0,384(sp)
  406f44:	afa30184 	sw	v1,388(sp)
  406f48:	afa20070 	sw	v0,112(sp)
  406f4c:	afa30074 	sw	v1,116(sp)
  406f50:	afa20078 	sw	v0,120(sp)
  406f54:	afa3007c 	sw	v1,124(sp)
  406f58:	afa20080 	sw	v0,128(sp)
  406f5c:	afa30084 	sw	v1,132(sp)
  406f60:	10a00190 	beqz	a1,4075a4 <_init+0x5eb8>
  406f64:	ae55049c 	sw	s5,1180(s2)
  406f68:	8ca20064 	lw	v0,100(a1)
  406f6c:	10400021 	beqz	v0,406ff4 <_init+0x5908>
  406f70:	0000a821 	move	s5,zero
  406f74:	27b60180 	addiu	s6,sp,384
  406f78:	10000016 	b	406fd4 <_init+0x58e8>
  406f7c:	24130005 	li	s3,5
  406f80:	8e450630 	lw	a1,1584(s2)
  406f84:	8e440498 	lw	a0,1176(s2)
  406f88:	8c460008 	lw	a2,8(v0)
  406f8c:	8ca70064 	lw	a3,100(a1)
  406f90:	8e49049c 	lw	t1,1180(s2)
  406f94:	8cc80000 	lw	t0,0(a2)
  406f98:	00041880 	sll	v1,a0,0x2
  406f9c:	00045100 	sll	t2,a0,0x4
  406fa0:	01431823 	subu	v1,t2,v1
  406fa4:	26b50001 	addiu	s5,s5,1
  406fa8:	01231821 	addu	v1,t1,v1
  406fac:	24c60004 	addiu	a2,a2,4
  406fb0:	24840001 	addiu	a0,a0,1
  406fb4:	02a7382b 	sltu	a3,s5,a3
  406fb8:	aec20000 	sw	v0,0(s6)
  406fbc:	ac680000 	sw	t0,0(v1)
  406fc0:	ac730004 	sw	s3,4(v1)
  406fc4:	ac660008 	sw	a2,8(v1)
  406fc8:	26d60004 	addiu	s6,s6,4
  406fcc:	10e00009 	beqz	a3,406ff4 <_init+0x5908>
  406fd0:	ae440498 	sw	a0,1176(s2)
  406fd4:	24a40020 	addiu	a0,a1,32
  406fd8:	27a60194 	addiu	a2,sp,404
  406fdc:	24a50038 	addiu	a1,a1,56
  406fe0:	0c113e35 	jal	44f8d4 <_init+0x4e1e8>
  406fe4:	afa00194 	sw	zero,404(sp)
  406fe8:	8fa20194 	lw	v0,404(sp)
  406fec:	1440ffe4 	bnez	v0,406f80 <_init+0x5894>
  406ff0:	00000000 	nop
  406ff4:	8e4200f0 	lw	v0,240(s2)
  406ff8:	10400045 	beqz	v0,407110 <_init+0x5a24>
  406ffc:	24020001 	li	v0,1
  407000:	ae420358 	sw	v0,856(s2)
  407004:	ae4000f0 	sw	zero,240(s2)
  407008:	8e44034c 	lw	a0,844(s2)
  40700c:	26310004 	addiu	s1,s1,4
  407010:	ae5104a8 	sw	s1,1192(s2)
  407014:	0c112a61 	jal	44a984 <_init+0x49298>
  407018:	26450350 	addiu	a1,s2,848
  40701c:	8e420620 	lw	v0,1568(s2)
  407020:	18400002 	blez	v0,40702c <_init+0x5940>
  407024:	2442ffff 	addiu	v0,v0,-1
  407028:	ae420620 	sw	v0,1568(s2)
  40702c:	8e420630 	lw	v0,1584(s2)
  407030:	1040000f 	beqz	v0,407070 <_init+0x5984>
  407034:	00000000 	nop
  407038:	12a0000d 	beqz	s5,407070 <_init+0x5984>
  40703c:	00000000 	nop
  407040:	27b30180 	addiu	s3,sp,384
  407044:	00008821 	move	s1,zero
  407048:	8e660000 	lw	a2,0(s3)
  40704c:	26310001 	addiu	s1,s1,1
  407050:	10c00005 	beqz	a2,407068 <_init+0x597c>
  407054:	26730004 	addiu	s3,s3,4
  407058:	8e450630 	lw	a1,1584(s2)
  40705c:	24a40040 	addiu	a0,a1,64
  407060:	0c113e1e 	jal	44f878 <_init+0x4e18c>
  407064:	24a50058 	addiu	a1,a1,88
  407068:	1635fff7 	bne	s1,s5,407048 <_init+0x595c>
  40706c:	00000000 	nop
  407070:	9242007c 	lbu	v0,124(s2)
  407074:	14400037 	bnez	v0,407154 <_init+0x5a68>
  407078:	00000000 	nop
  40707c:	0c125860 	jal	496180 <pthread_mutex_lock@plt>
  407080:	02002021 	move	a0,s0
  407084:	8fa301a0 	lw	v1,416(sp)
  407088:	8e420350 	lw	v0,848(s2)
  40708c:	27a5018c 	addiu	a1,sp,396
  407090:	8c710004 	lw	s1,4(v1)
  407094:	ae420618 	sw	v0,1560(s2)
  407098:	0c125878 	jal	4961e0 <sem_getvalue@plt>
  40709c:	262400f0 	addiu	a0,s1,240
  4070a0:	262400e0 	addiu	a0,s1,224
  4070a4:	0c125878 	jal	4961e0 <sem_getvalue@plt>
  4070a8:	27a50188 	addiu	a1,sp,392
  4070ac:	8fa3018c 	lw	v1,396(sp)
  4070b0:	8fa20188 	lw	v0,392(sp)
  4070b4:	24040010 	li	a0,16
  4070b8:	00831823 	subu	v1,a0,v1
  4070bc:	0062202a 	slt	a0,v1,v0
  4070c0:	0064100a 	movz	v0,v1,a0
  4070c4:	ae4200b8 	sw	v0,184(s2)
  4070c8:	24020001 	li	v0,1
  4070cc:	02002021 	move	a0,s0
  4070d0:	ae4200c8 	sw	v0,200(s2)
  4070d4:	0c1257ec 	jal	495fb0 <pthread_mutex_unlock@plt>
  4070d8:	00008021 	move	s0,zero
  4070dc:	8fbf01cc 	lw	ra,460(sp)
  4070e0:	02001021 	move	v0,s0
  4070e4:	8fbe01c8 	lw	s8,456(sp)
  4070e8:	8fb701c4 	lw	s7,452(sp)
  4070ec:	8fb601c0 	lw	s6,448(sp)
  4070f0:	8fb501bc 	lw	s5,444(sp)
  4070f4:	8fb401b8 	lw	s4,440(sp)
  4070f8:	8fb301b4 	lw	s3,436(sp)
  4070fc:	8fb201b0 	lw	s2,432(sp)
  407100:	8fb101ac 	lw	s1,428(sp)
  407104:	8fb001a8 	lw	s0,424(sp)
  407108:	03e00008 	jr	ra
  40710c:	27bd01d0 	addiu	sp,sp,464
  407110:	1000ffbd 	b	407008 <_init+0x591c>
  407114:	ae400358 	sw	zero,856(s2)
  407118:	8e63000c 	lw	v1,12(s3)
  40711c:	8e640008 	lw	a0,8(s3)
  407120:	2466000f 	addiu	a2,v1,15
  407124:	2487000f 	addiu	a3,a0,15
  407128:	00c53024 	and	a2,a2,a1
  40712c:	00e52824 	and	a1,a3,a1
  407130:	70c53802 	mul	a3,a2,a1
  407134:	8e820000 	lw	v0,0(s4)
  407138:	8c42001c 	lw	v0,28(v0)
  40713c:	ae420410 	sw	v0,1040(s2)
  407140:	00e22821 	addu	a1,a3,v0
  407144:	8fa20198 	lw	v0,408(sp)
  407148:	ae450414 	sw	a1,1044(s2)
  40714c:	1000ff51 	b	406e94 <_init+0x57a8>
  407150:	ae420434 	sw	v0,1076(s2)
  407154:	0c1015c8 	jal	405720 <_init+0x4034>
  407158:	02402021 	move	a0,s2
  40715c:	14400032 	bnez	v0,407228 <_init+0x5b3c>
  407160:	00000000 	nop
  407164:	8e4207c8 	lw	v0,1992(s2)
  407168:	2843006c 	slti	v1,v0,108
  40716c:	1460019e 	bnez	v1,4077e8 <_init+0x60fc>
  407170:	24420014 	addiu	v0,v0,20
  407174:	24020080 	li	v0,128
  407178:	ae4207c8 	sw	v0,1992(s2)
  40717c:	0c11ca4c 	jal	472930 <_init+0x71244>
  407180:	00000000 	nop
  407184:	00402821 	move	a1,v0
  407188:	3c020047 	lui	v0,0x47
  40718c:	24425e78 	addiu	v0,v0,24184
  407190:	8e480000 	lw	t0,0(s2)
  407194:	8e4307c8 	lw	v1,1992(s2)
  407198:	afa20010 	sw	v0,16(sp)
  40719c:	240202b1 	li	v0,689
  4071a0:	afa20014 	sw	v0,20(sp)
  4071a4:	3c020048 	lui	v0,0x48
  4071a8:	244288c0 	addiu	v0,v0,-30528
  4071ac:	afa20018 	sw	v0,24(sp)
  4071b0:	3c020047 	lui	v0,0x47
  4071b4:	24426480 	addiu	v0,v0,25728
  4071b8:	3c070047 	lui	a3,0x47
  4071bc:	24040002 	li	a0,2
  4071c0:	24060002 	li	a2,2
  4071c4:	24e75e70 	addiu	a3,a3,24176
  4071c8:	afa2001c 	sw	v0,28(sp)
  4071cc:	afa80020 	sw	t0,32(sp)
  4071d0:	0c11cb29 	jal	472ca4 <_init+0x715b8>
  4071d4:	afa30024 	sw	v1,36(sp)
  4071d8:	8e4407c8 	lw	a0,1992(s2)
  4071dc:	38850080 	xori	a1,a0,0x80
  4071e0:	0005282b 	sltu	a1,zero,a1
  4071e4:	0c1076c3 	jal	41db0c <_init+0x1c420>
  4071e8:	308400ff 	andi	a0,a0,0xff
  4071ec:	1000ffa3 	b	40707c <_init+0x5990>
  4071f0:	00000000 	nop
  4071f4:	8e430038 	lw	v1,56(s2)
  4071f8:	8e42003c 	lw	v0,60(s2)
  4071fc:	70831802 	mul	v1,a0,v1
  407200:	70a21002 	mul	v0,a1,v0
  407204:	10620022 	beq	v1,v0,407290 <_init+0x5ba4>
  407208:	00000000 	nop
  40720c:	ae450038 	sw	a1,56(s2)
  407210:	1000fdbb 	b	406900 <_init+0x5214>
  407214:	ae44003c 	sw	a0,60(s2)
  407218:	24420001 	addiu	v0,v0,1
  40721c:	ae4200e8 	sw	v0,232(s2)
  407220:	1000fdd2 	b	40696c <_init+0x5280>
  407224:	24110001 	li	s1,1
  407228:	8e4207c8 	lw	v0,1992(s2)
  40722c:	28430015 	slti	v1,v0,21
  407230:	14600133 	bnez	v1,407700 <_init+0x6014>
  407234:	2442ffec 	addiu	v0,v0,-20
  407238:	1000ffd0 	b	40717c <_init+0x5a90>
  40723c:	ae4207c8 	sw	v0,1992(s2)
  407240:	8e430160 	lw	v1,352(s2)
  407244:	1460fedc 	bnez	v1,406db8 <_init+0x56cc>
  407248:	00000000 	nop
  40724c:	8e430164 	lw	v1,356(s2)
  407250:	1460fed9 	bnez	v1,406db8 <_init+0x56cc>
  407254:	24030001 	li	v1,1
  407258:	8e440074 	lw	a0,116(s2)
  40725c:	1483fed6 	bne	a0,v1,406db8 <_init+0x56cc>
  407260:	00000000 	nop
  407264:	8e420624 	lw	v0,1572(s2)
  407268:	2610ffff 	addiu	s0,s0,-1
  40726c:	0c10f329 	jal	43cca4 <_init+0x3b5b8>
  407270:	8c44001c 	lw	a0,28(v0)
  407274:	1600fffb 	bnez	s0,407264 <_init+0x5b78>
  407278:	00000000 	nop
  40727c:	8e420158 	lw	v0,344(s2)
  407280:	ae400620 	sw	zero,1568(s2)
  407284:	1000fece 	b	406dc0 <_init+0x56d4>
  407288:	ae400624 	sw	zero,1572(s2)
  40728c:	00008021 	move	s0,zero
  407290:	0c1257ec 	jal	495fb0 <pthread_mutex_unlock@plt>
  407294:	02a02021 	move	a0,s5
  407298:	0c125860 	jal	496180 <pthread_mutex_lock@plt>
  40729c:	02a02021 	move	a0,s5
  4072a0:	8e4200e8 	lw	v0,232(s2)
  4072a4:	8e430040 	lw	v1,64(s2)
  4072a8:	1062000e 	beq	v1,v0,4072e4 <_init+0x5bf8>
  4072ac:	00000000 	nop
  4072b0:	8e44003c 	lw	a0,60(s2)
  4072b4:	8e430038 	lw	v1,56(s2)
  4072b8:	70831802 	mul	v1,a0,v1
  4072bc:	0043001b 	divu	zero,v0,v1
  4072c0:	006001f4 	teq	v1,zero,0x7
  4072c4:	00002010 	mfhi	a0
  4072c8:	1080fda8 	beqz	a0,40696c <_init+0x5280>
  4072cc:	00008821 	move	s1,zero
  4072d0:	00002012 	mflo	a0
  4072d4:	24820001 	addiu	v0,a0,1
  4072d8:	70431002 	mul	v0,v0,v1
  4072dc:	1000fda3 	b	40696c <_init+0x5280>
  4072e0:	ae4200e8 	sw	v0,232(s2)
  4072e4:	0c1257ec 	jal	495fb0 <pthread_mutex_unlock@plt>
  4072e8:	02a02021 	move	a0,s5
  4072ec:	1200fde9 	beqz	s0,406a94 <_init+0x53a8>
  4072f0:	00000000 	nop
  4072f4:	1000fdac 	b	4069a8 <_init+0x52bc>
  4072f8:	ae5000f0 	sw	s0,240(s2)
  4072fc:	0c101119 	jal	404464 <_init+0x2d78>
  407300:	00000000 	nop
  407304:	8e440804 	lw	a0,2052(s2)
  407308:	ae420808 	sw	v0,2056(s2)
  40730c:	ae43080c 	sw	v1,2060(s2)
  407310:	24840001 	addiu	a0,a0,1
  407314:	ae440804 	sw	a0,2052(s2)
  407318:	0c101608 	jal	405820 <_init+0x4134>
  40731c:	02402021 	move	a0,s2
  407320:	1440fed1 	bnez	v0,406e68 <_init+0x577c>
  407324:	00408821 	move	s1,v0
  407328:	8e420800 	lw	v0,2048(s2)
  40732c:	3c150047 	lui	s5,0x47
  407330:	3c100048 	lui	s0,0x48
  407334:	24420001 	addiu	v0,v0,1
  407338:	0c11ca4c 	jal	472930 <_init+0x71244>
  40733c:	ae420800 	sw	v0,2048(s2)
  407340:	24030332 	li	v1,818
  407344:	afa30014 	sw	v1,20(sp)
  407348:	8fa701a0 	lw	a3,416(sp)
  40734c:	3c030047 	lui	v1,0x47
  407350:	246363d0 	addiu	v1,v1,25552
  407354:	26b55e78 	addiu	s5,s5,24184
  407358:	2610883c 	addiu	s0,s0,-30660
  40735c:	afb50010 	sw	s5,16(sp)
  407360:	afb00018 	sw	s0,24(sp)
  407364:	afa3001c 	sw	v1,28(sp)
  407368:	8ce50004 	lw	a1,4(a3)
  40736c:	8e430000 	lw	v1,0(s2)
  407370:	3c110047 	lui	s1,0x47
  407374:	afa50020 	sw	a1,32(sp)
  407378:	24040002 	li	a0,2
  40737c:	00402821 	move	a1,v0
  407380:	afa30024 	sw	v1,36(sp)
  407384:	24060002 	li	a2,2
  407388:	0c11cb29 	jal	472ca4 <_init+0x715b8>
  40738c:	26275e70 	addiu	a3,s1,24176
  407390:	8e4206f0 	lw	v0,1776(s2)
  407394:	1040fe6c 	beqz	v0,406d48 <_init+0x565c>
  407398:	00000000 	nop
  40739c:	0c11ca4c 	jal	472930 <_init+0x71244>
  4073a0:	00000000 	nop
  4073a4:	8e840000 	lw	a0,0(s4)
  4073a8:	8e630020 	lw	v1,32(s3)
  4073ac:	8e670024 	lw	a3,36(s3)
  4073b0:	8c860020 	lw	a2,32(a0)
  4073b4:	8c850024 	lw	a1,36(a0)
  4073b8:	24090393 	li	t1,915
  4073bc:	00662023 	subu	a0,v1,a2
  4073c0:	00e55823 	subu	t3,a3,a1
  4073c4:	0064502b 	sltu	t2,v1,a0
  4073c8:	016a5023 	subu	t2,t3,t2
  4073cc:	3c0b0047 	lui	t3,0x47
  4073d0:	256b6494 	addiu	t3,t3,25748
  4073d4:	afa7002c 	sw	a3,44(sp)
  4073d8:	afa60030 	sw	a2,48(sp)
  4073dc:	afa50034 	sw	a1,52(sp)
  4073e0:	afa40038 	sw	a0,56(sp)
  4073e4:	afb50010 	sw	s5,16(sp)
  4073e8:	afa90014 	sw	t1,20(sp)
  4073ec:	afb00018 	sw	s0,24(sp)
  4073f0:	afab001c 	sw	t3,28(sp)
  4073f4:	afb00020 	sw	s0,32(sp)
  4073f8:	afa90024 	sw	t1,36(sp)
  4073fc:	afa30028 	sw	v1,40(sp)
  407400:	afaa003c 	sw	t2,60(sp)
  407404:	24040003 	li	a0,3
  407408:	00402821 	move	a1,v0
  40740c:	24060002 	li	a2,2
  407410:	0c11cb29 	jal	472ca4 <_init+0x715b8>
  407414:	26275e70 	addiu	a3,s1,24176
  407418:	8e990008 	lw	t9,8(s4)
  40741c:	13200004 	beqz	t9,407430 <_init+0x5d44>
  407420:	00000000 	nop
  407424:	8e840000 	lw	a0,0(s4)
  407428:	0320f809 	jalr	t9
  40742c:	8e850004 	lw	a1,4(s4)
  407430:	a2800000 	sb	zero,0(s4)
  407434:	a2800001 	sb	zero,1(s4)
  407438:	a2800002 	sb	zero,2(s4)
  40743c:	a2800003 	sb	zero,3(s4)
  407440:	a2800004 	sb	zero,4(s4)
  407444:	a2800005 	sb	zero,5(s4)
  407448:	a2800006 	sb	zero,6(s4)
  40744c:	a2800007 	sb	zero,7(s4)
  407450:	a2800008 	sb	zero,8(s4)
  407454:	a2800009 	sb	zero,9(s4)
  407458:	a280000a 	sb	zero,10(s4)
  40745c:	a280000b 	sb	zero,11(s4)
  407460:	8e440728 	lw	a0,1832(s2)
  407464:	8fa60198 	lw	a2,408(sp)
  407468:	0c113e1e 	jal	44f878 <_init+0x4e18c>
  40746c:	24850018 	addiu	a1,a0,24
  407470:	0c125800 	jal	496000 <sem_post@plt>
  407474:	264406f8 	addiu	a0,s2,1784
  407478:	1000fe33 	b	406d48 <_init+0x565c>
  40747c:	ae4006f4 	sw	zero,1780(s2)
  407480:	0c101430 	jal	4050c0 <_init+0x39d4>
  407484:	00000000 	nop
  407488:	28420006 	slti	v0,v0,6
  40748c:	1040fe8f 	beqz	v0,406ecc <_init+0x57e0>
  407490:	00000000 	nop
  407494:	8e4207d4 	lw	v0,2004(s2)
  407498:	1040fe8c 	beqz	v0,406ecc <_init+0x57e0>
  40749c:	00000000 	nop
  4074a0:	0c105dd8 	jal	417760 <_init+0x16074>
  4074a4:	27b50070 	addiu	s5,sp,112
  4074a8:	1040000a 	beqz	v0,4074d4 <_init+0x5de8>
  4074ac:	0040b021 	move	s6,v0
  4074b0:	924207d1 	lbu	v0,2001(s2)
  4074b4:	144000f8 	bnez	v0,407898 <_init+0x61ac>
  4074b8:	27b50070 	addiu	s5,sp,112
  4074bc:	8e4407e4 	lw	a0,2020(s2)
  4074c0:	8e65001c 	lw	a1,28(s3)
  4074c4:	0c125828 	jal	4960a0 <memcpy@plt>
  4074c8:	8e4607f4 	lw	a2,2036(s2)
  4074cc:	24020001 	li	v0,1
  4074d0:	a24207d1 	sb	v0,2001(s2)
  4074d4:	8e4407e0 	lw	a0,2016(s2)
  4074d8:	8e4307dc 	lw	v1,2012(s2)
  4074dc:	8e4207f0 	lw	v0,2032(s2)
  4074e0:	24050001 	li	a1,1
  4074e4:	ae4503c4 	sw	a1,964(s2)
  4074e8:	ae4403c8 	sw	a0,968(s2)
  4074ec:	ae4303d0 	sw	v1,976(s2)
  4074f0:	1000fe7b 	b	406ee0 <_init+0x57f4>
  4074f4:	ae4203cc 	sw	v0,972(s2)
  4074f8:	2410ffff 	li	s0,-1
  4074fc:	02001021 	move	v0,s0
  407500:	8fbe01c8 	lw	s8,456(sp)
  407504:	8fb701c4 	lw	s7,452(sp)
  407508:	8fb601c0 	lw	s6,448(sp)
  40750c:	8fb501bc 	lw	s5,444(sp)
  407510:	8fb401b8 	lw	s4,440(sp)
  407514:	8fb301b4 	lw	s3,436(sp)
  407518:	8fb201b0 	lw	s2,432(sp)
  40751c:	8fb101ac 	lw	s1,428(sp)
  407520:	8fb001a8 	lw	s0,424(sp)
  407524:	03e00008 	jr	ra
  407528:	27bd01d0 	addiu	sp,sp,464
  40752c:	8e430620 	lw	v1,1568(s2)
  407530:	14600006 	bnez	v1,40754c <_init+0x5e60>
  407534:	00000000 	nop
  407538:	8e430078 	lw	v1,120(s2)
  40753c:	8e440158 	lw	a0,344(s2)
  407540:	ae530624 	sw	s3,1572(s2)
  407544:	10800070 	beqz	a0,407708 <_init+0x601c>
  407548:	ae430620 	sw	v1,1568(s2)
  40754c:	1860fd7c 	blez	v1,406b40 <_init+0x5454>
  407550:	24020002 	li	v0,2
  407554:	8e440074 	lw	a0,116(s2)
  407558:	1482fd79 	bne	a0,v0,406b40 <_init+0x5454>
  40755c:	8e530624 	lw	s3,1572(s2)
  407560:	8e420078 	lw	v0,120(s2)
  407564:	2442ffff 	addiu	v0,v0,-1
  407568:	0062102b 	sltu	v0,v1,v0
  40756c:	1040fd74 	beqz	v0,406b40 <_init+0x5454>
  407570:	2463ffff 	addiu	v1,v1,-1
  407574:	8e420610 	lw	v0,1552(s2)
  407578:	8e450614 	lw	a1,1556(s2)
  40757c:	24440001 	addiu	a0,v0,1
  407580:	0082302b 	sltu	a2,a0,v0
  407584:	00c53021 	addu	a2,a2,a1
  407588:	ae430620 	sw	v1,1568(s2)
  40758c:	ae420360 	sw	v0,864(s2)
  407590:	ae450364 	sw	a1,868(s2)
  407594:	ae440610 	sw	a0,1552(s2)
  407598:	ae460614 	sw	a2,1556(s2)
  40759c:	1000fecf 	b	4070dc <_init+0x59f0>
  4075a0:	00008021 	move	s0,zero
  4075a4:	1000fe93 	b	406ff4 <_init+0x5908>
  4075a8:	0000a821 	move	s5,zero
  4075ac:	0c11ca4c 	jal	472930 <_init+0x71244>
  4075b0:	00000000 	nop
  4075b4:	3c050047 	lui	a1,0x47
  4075b8:	24a55e78 	addiu	a1,a1,24184
  4075bc:	afa50010 	sw	a1,16(sp)
  4075c0:	3c040048 	lui	a0,0x48
  4075c4:	3c050047 	lui	a1,0x47
  4075c8:	2484883c 	addiu	a0,a0,-30660
  4075cc:	2403030b 	li	v1,779
  4075d0:	24a562e0 	addiu	a1,a1,25312
  4075d4:	3c070047 	lui	a3,0x47
  4075d8:	afa40018 	sw	a0,24(sp)
  4075dc:	afa5001c 	sw	a1,28(sp)
  4075e0:	afa40020 	sw	a0,32(sp)
  4075e4:	afa30014 	sw	v1,20(sp)
  4075e8:	afa30024 	sw	v1,36(sp)
  4075ec:	24040006 	li	a0,6
  4075f0:	00402821 	move	a1,v0
  4075f4:	24060002 	li	a2,2
  4075f8:	0c11cb29 	jal	472ca4 <_init+0x715b8>
  4075fc:	24e75e70 	addiu	a3,a3,24176
  407600:	1000fdd2 	b	406d4c <_init+0x5660>
  407604:	8e500620 	lw	s0,1568(s2)
  407608:	15450005 	bne	t2,a1,407620 <_init+0x5f34>
  40760c:	00000000 	nop
  407610:	8e4507a8 	lw	a1,1960(s2)
  407614:	00a4202b 	sltu	a0,a1,a0
  407618:	1480fd6e 	bnez	a0,406bd4 <_init+0x54e8>
  40761c:	0062202a 	slt	a0,v1,v0
  407620:	2402000c 	li	v0,12
  407624:	1000fe07 	b	406e44 <_init+0x5758>
  407628:	ae4206f4 	sw	v0,1780(s2)
  40762c:	1080fd6d 	beqz	a0,406be4 <_init+0x54f8>
  407630:	00000000 	nop
  407634:	8e440728 	lw	a0,1832(s2)
  407638:	24850038 	addiu	a1,a0,56
  40763c:	0c113e07 	jal	44f81c <_init+0x4e130>
  407640:	24840020 	addiu	a0,a0,32
  407644:	0c125800 	jal	496000 <sem_post@plt>
  407648:	02202021 	move	a0,s1
  40764c:	2402000b 	li	v0,11
  407650:	0c11ca4c 	jal	472930 <_init+0x71244>
  407654:	ae4206f4 	sw	v0,1780(s2)
  407658:	8e840000 	lw	a0,0(s4)
  40765c:	8e630020 	lw	v1,32(s3)
  407660:	8e670024 	lw	a3,36(s3)
  407664:	8c860020 	lw	a2,32(a0)
  407668:	8c850024 	lw	a1,36(a0)
  40766c:	3c090048 	lui	t1,0x48
  407670:	00662023 	subu	a0,v1,a2
  407674:	00e55823 	subu	t3,a3,a1
  407678:	0064502b 	sltu	t2,v1,a0
  40767c:	016a5023 	subu	t2,t3,t2
  407680:	3c0b0047 	lui	t3,0x47
  407684:	256b5e78 	addiu	t3,t3,24184
  407688:	afab0010 	sw	t3,16(sp)
  40768c:	3c0b0047 	lui	t3,0x47
  407690:	2529883c 	addiu	t1,t1,-30660
  407694:	2408031a 	li	t0,794
  407698:	256b6320 	addiu	t3,t3,25376
  40769c:	afa7002c 	sw	a3,44(sp)
  4076a0:	3c070047 	lui	a3,0x47
  4076a4:	afa60030 	sw	a2,48(sp)
  4076a8:	afa50034 	sw	a1,52(sp)
  4076ac:	afa40038 	sw	a0,56(sp)
  4076b0:	afa80014 	sw	t0,20(sp)
  4076b4:	afa90018 	sw	t1,24(sp)
  4076b8:	afab001c 	sw	t3,28(sp)
  4076bc:	afa90020 	sw	t1,32(sp)
  4076c0:	afa80024 	sw	t0,36(sp)
  4076c4:	afa30028 	sw	v1,40(sp)
  4076c8:	afaa003c 	sw	t2,60(sp)
  4076cc:	24040003 	li	a0,3
  4076d0:	00402821 	move	a1,v0
  4076d4:	24060002 	li	a2,2
  4076d8:	0c11cb29 	jal	472ca4 <_init+0x715b8>
  4076dc:	24e75e70 	addiu	a3,a3,24176
  4076e0:	1000fd9a 	b	406d4c <_init+0x5660>
  4076e4:	8e500620 	lw	s0,1568(s2)
  4076e8:	1462fdd6 	bne	v1,v0,406e44 <_init+0x5758>
  4076ec:	00e9382b 	sltu	a3,a3,t1
  4076f0:	14e0fd3f 	bnez	a3,406bf0 <_init+0x5504>
  4076f4:	00000000 	nop
  4076f8:	1000fdd3 	b	406e48 <_init+0x575c>
  4076fc:	8e440804 	lw	a0,2052(s2)
  407700:	1000fe9e 	b	40717c <_init+0x5a90>
  407704:	ae4007c8 	sw	zero,1992(s2)
  407708:	8e440160 	lw	a0,352(s2)
  40770c:	1480ff8f 	bnez	a0,40754c <_init+0x5e60>
  407710:	00000000 	nop
  407714:	8e440164 	lw	a0,356(s2)
  407718:	1480ff8c 	bnez	a0,40754c <_init+0x5e60>
  40771c:	24040001 	li	a0,1
  407720:	1044013b 	beq	v0,a0,407c10 <_init+0x6524>
  407724:	00000000 	nop
  407728:	0c10f304 	jal	43cc10 <_init+0x3b524>
  40772c:	8e64001c 	lw	a0,28(s3)
  407730:	1000ff86 	b	40754c <_init+0x5e60>
  407734:	8e430620 	lw	v1,1568(s2)
  407738:	0c11ca4c 	jal	472930 <_init+0x71244>
  40773c:	3c110047 	lui	s1,0x47
  407740:	24030220 	li	v1,544
  407744:	afa30014 	sw	v1,20(sp)
  407748:	3c030048 	lui	v1,0x48
  40774c:	24638858 	addiu	v1,v1,-30632
  407750:	afa30018 	sw	v1,24(sp)
  407754:	3c030047 	lui	v1,0x47
  407758:	24636160 	addiu	v1,v1,24928
  40775c:	26315e78 	addiu	s1,s1,24184
  407760:	afb10010 	sw	s1,16(sp)
  407764:	afa3001c 	sw	v1,28(sp)
  407768:	8e630028 	lw	v1,40(s3)
  40776c:	3c100047 	lui	s0,0x47
  407770:	24040006 	li	a0,6
  407774:	afa30020 	sw	v1,32(sp)
  407778:	8e63002c 	lw	v1,44(s3)
  40777c:	00402821 	move	a1,v0
  407780:	24060002 	li	a2,2
  407784:	afa30024 	sw	v1,36(sp)
  407788:	0c11cb29 	jal	472ca4 <_init+0x715b8>
  40778c:	26075e70 	addiu	a3,s0,24176
  407790:	0c11ca4c 	jal	472930 <_init+0x71244>
  407794:	00000000 	nop
  407798:	240302cc 	li	v1,716
  40779c:	afa30014 	sw	v1,20(sp)
  4077a0:	3c030048 	lui	v1,0x48
  4077a4:	2463883c 	addiu	v1,v1,-30660
  4077a8:	afa30018 	sw	v1,24(sp)
  4077ac:	8fa401a0 	lw	a0,416(sp)
  4077b0:	3c030047 	lui	v1,0x47
  4077b4:	24636280 	addiu	v1,v1,25216
  4077b8:	afb10010 	sw	s1,16(sp)
  4077bc:	afa3001c 	sw	v1,28(sp)
  4077c0:	8c830004 	lw	v1,4(a0)
  4077c4:	26075e70 	addiu	a3,s0,24176
  4077c8:	24040002 	li	a0,2
  4077cc:	00402821 	move	a1,v0
  4077d0:	afa30020 	sw	v1,32(sp)
  4077d4:	24060002 	li	a2,2
  4077d8:	0c11cb29 	jal	472ca4 <_init+0x715b8>
  4077dc:	00008021 	move	s0,zero
  4077e0:	1000fe3f 	b	4070e0 <_init+0x59f4>
  4077e4:	8fbf01cc 	lw	ra,460(sp)
  4077e8:	1000fe64 	b	40717c <_init+0x5a90>
  4077ec:	ae4207c8 	sw	v0,1992(s2)
  4077f0:	8e420158 	lw	v0,344(s2)
  4077f4:	1040000c 	beqz	v0,407828 <_init+0x613c>
  4077f8:	00000000 	nop
  4077fc:	ae400620 	sw	zero,1568(s2)
  407800:	ae400624 	sw	zero,1572(s2)
  407804:	1000fe35 	b	4070dc <_init+0x59f0>
  407808:	2410ffff 	li	s0,-1
  40780c:	3c110047 	lui	s1,0x47
  407810:	26315e78 	addiu	s1,s1,24184
  407814:	1000ffde 	b	407790 <_init+0x60a4>
  407818:	3c100047 	lui	s0,0x47
  40781c:	00008021 	move	s0,zero
  407820:	1000fc96 	b	406a7c <_init+0x5390>
  407824:	00008821 	move	s1,zero
  407828:	8e420160 	lw	v0,352(s2)
  40782c:	1440fff3 	bnez	v0,4077fc <_init+0x6110>
  407830:	00000000 	nop
  407834:	8e420164 	lw	v0,356(s2)
  407838:	1440fff0 	bnez	v0,4077fc <_init+0x6110>
  40783c:	24030001 	li	v1,1
  407840:	8e420074 	lw	v0,116(s2)
  407844:	1043000c 	beq	v0,v1,407878 <_init+0x618c>
  407848:	24030002 	li	v1,2
  40784c:	1443ffeb 	bne	v0,v1,4077fc <_init+0x6110>
  407850:	00000000 	nop
  407854:	8e420078 	lw	v0,120(s2)
  407858:	2442ffff 	addiu	v0,v0,-1
  40785c:	1602ffe7 	bne	s0,v0,4077fc <_init+0x6110>
  407860:	00000000 	nop
  407864:	8e420624 	lw	v0,1572(s2)
  407868:	0c10f329 	jal	43cca4 <_init+0x3b5b8>
  40786c:	8c44001c 	lw	a0,28(v0)
  407870:	1000ffe3 	b	407800 <_init+0x6114>
  407874:	ae400620 	sw	zero,1568(s2)
  407878:	8e420624 	lw	v0,1572(s2)
  40787c:	2610ffff 	addiu	s0,s0,-1
  407880:	0c10f329 	jal	43cca4 <_init+0x3b5b8>
  407884:	8c44001c 	lw	a0,28(v0)
  407888:	1600fffb 	bnez	s0,407878 <_init+0x618c>
  40788c:	00000000 	nop
  407890:	1000ffdb 	b	407800 <_init+0x6114>
  407894:	ae400620 	sw	zero,1568(s2)
  407898:	3c1e0047 	lui	s8,0x47
  40789c:	27c46418 	addiu	a0,s8,25624
  4078a0:	0c12591c 	jal	496470 <access@plt>
  4078a4:	00002821 	move	a1,zero
  4078a8:	1040006a 	beqz	v0,407a54 <_init+0x6368>
  4078ac:	00000000 	nop
  4078b0:	7000600c 	d16madl	xr0,xr8,xr1,xr0,AA,WW
  4078b4:	7000184c 	d16madl	xr1,xr6,xr0,xr0,AA,WW
  4078b8:	7000008c 	d16madl	xr2,xr0,xr0,xr0,AA,WW
  4078bc:	700048cc 	d16madl	xr3,xr2,xr1,xr0,AA,WW
  4078c0:	8e620008 	lw	v0,8(s3)
  4078c4:	8e67001c 	lw	a3,28(s3)
  4078c8:	8e4407d8 	lw	a0,2008(s2)
  4078cc:	afa20010 	sw	v0,16(sp)
  4078d0:	8e62000c 	lw	v0,12(s3)
  4078d4:	8e4507fc 	lw	a1,2044(s2)
  4078d8:	8e4607e4 	lw	a2,2020(s2)
  4078dc:	afa20014 	sw	v0,20(sp)
  4078e0:	8ec201ac 	lw	v0,428(s6)
  4078e4:	afa20018 	sw	v0,24(sp)
  4078e8:	8ec201b0 	lw	v0,432(s6)
  4078ec:	afa2001c 	sw	v0,28(sp)
  4078f0:	8ec201bc 	lw	v0,444(s6)
  4078f4:	afa20020 	sw	v0,32(sp)
  4078f8:	8ec201c0 	lw	v0,448(s6)
  4078fc:	afa20024 	sw	v0,36(sp)
  407900:	8ec201cc 	lw	v0,460(s6)
  407904:	afa20028 	sw	v0,40(sp)
  407908:	8ec201d4 	lw	v0,468(s6)
  40790c:	afa2002c 	sw	v0,44(sp)
  407910:	8ec201e0 	lw	v0,480(s6)
  407914:	afa20030 	sw	v0,48(sp)
  407918:	8ec201dc 	lw	v0,476(s6)
  40791c:	afa20034 	sw	v0,52(sp)
  407920:	8ec20010 	lw	v0,16(s6)
  407924:	afa20038 	sw	v0,56(sp)
  407928:	8ec20014 	lw	v0,20(s6)
  40792c:	afa2003c 	sw	v0,60(sp)
  407930:	8ec20040 	lw	v0,64(s6)
  407934:	afa20040 	sw	v0,64(sp)
  407938:	8ec201e4 	lw	v0,484(s6)
  40793c:	afa20044 	sw	v0,68(sp)
  407940:	8ec201b4 	lw	v0,436(s6)
  407944:	afa20048 	sw	v0,72(sp)
  407948:	8ec201b8 	lw	v0,440(s6)
  40794c:	afa2004c 	sw	v0,76(sp)
  407950:	8ec201c4 	lw	v0,452(s6)
  407954:	afa20050 	sw	v0,80(sp)
  407958:	8ec201c8 	lw	v0,456(s6)
  40795c:	afa20054 	sw	v0,84(sp)
  407960:	8ec201d0 	lw	v0,464(s6)
  407964:	afa20058 	sw	v0,88(sp)
  407968:	8ec201d8 	lw	v0,472(s6)
  40796c:	afa2005c 	sw	v0,92(sp)
  407970:	8ec201e8 	lw	v0,488(s6)
  407974:	0c10ae91 	jal	42ba44 <_init+0x2a358>
  407978:	afa20060 	sw	v0,96(sp)
  40797c:	1000fed0 	b	4074c0 <_init+0x5dd4>
  407980:	8e4407e4 	lw	a0,2020(s2)
  407984:	0c11ca4c 	jal	472930 <_init+0x71244>
  407988:	3c110047 	lui	s1,0x47
  40798c:	00402821 	move	a1,v0
  407990:	240201fd 	li	v0,509
  407994:	afa20014 	sw	v0,20(sp)
  407998:	3c020048 	lui	v0,0x48
  40799c:	24428870 	addiu	v0,v0,-30608
  4079a0:	afa20018 	sw	v0,24(sp)
  4079a4:	3c020047 	lui	v0,0x47
  4079a8:	2442622c 	addiu	v0,v0,25132
  4079ac:	26315e78 	addiu	s1,s1,24184
  4079b0:	3c100047 	lui	s0,0x47
  4079b4:	24040006 	li	a0,6
  4079b8:	24060002 	li	a2,2
  4079bc:	26075e70 	addiu	a3,s0,24176
  4079c0:	afa2001c 	sw	v0,28(sp)
  4079c4:	afb10010 	sw	s1,16(sp)
  4079c8:	afb70020 	sw	s7,32(sp)
  4079cc:	0c11cb29 	jal	472ca4 <_init+0x715b8>
  4079d0:	afb60024 	sw	s6,36(sp)
  4079d4:	0c11ca4c 	jal	472930 <_init+0x71244>
  4079d8:	00000000 	nop
  4079dc:	24030267 	li	v1,615
  4079e0:	afa30014 	sw	v1,20(sp)
  4079e4:	3c030048 	lui	v1,0x48
  4079e8:	24638858 	addiu	v1,v1,-30632
  4079ec:	afa30018 	sw	v1,24(sp)
  4079f0:	3c030047 	lui	v1,0x47
  4079f4:	afb10010 	sw	s1,16(sp)
  4079f8:	24636260 	addiu	v1,v1,25184
  4079fc:	afa3001c 	sw	v1,28(sp)
  407a00:	24040006 	li	a0,6
  407a04:	00402821 	move	a1,v0
  407a08:	24060002 	li	a2,2
  407a0c:	0c11cb29 	jal	472ca4 <_init+0x715b8>
  407a10:	26075e70 	addiu	a3,s0,24176
  407a14:	1000ff5e 	b	407790 <_init+0x60a4>
  407a18:	00000000 	nop
  407a1c:	0c1257ec 	jal	495fb0 <pthread_mutex_unlock@plt>
  407a20:	3c110047 	lui	s1,0x47
  407a24:	0c11ca4c 	jal	472930 <_init+0x71244>
  407a28:	26315e78 	addiu	s1,s1,24184
  407a2c:	2403025a 	li	v1,602
  407a30:	afa30014 	sw	v1,20(sp)
  407a34:	3c030048 	lui	v1,0x48
  407a38:	24638858 	addiu	v1,v1,-30632
  407a3c:	afa30018 	sw	v1,24(sp)
  407a40:	3c030047 	lui	v1,0x47
  407a44:	3c100047 	lui	s0,0x47
  407a48:	afb10010 	sw	s1,16(sp)
  407a4c:	1000ffeb 	b	4079fc <_init+0x6310>
  407a50:	24636204 	addiu	v1,v1,25092
  407a54:	0c100eb2 	jal	403ac8 <_init+0x23dc>
  407a58:	8e770004 	lw	s7,4(s3)
  407a5c:	3c060047 	lui	a2,0x47
  407a60:	02e03821 	move	a3,s7
  407a64:	27a400f0 	addiu	a0,sp,240
  407a68:	2405007f 	li	a1,127
  407a6c:	24c66428 	addiu	a2,a2,25640
  407a70:	afa30014 	sw	v1,20(sp)
  407a74:	0c1258f0 	jal	4963c0 <snprintf@plt>
  407a78:	afa20010 	sw	v0,16(sp)
  407a7c:	0c100eb2 	jal	403ac8 <_init+0x23dc>
  407a80:	8e770004 	lw	s7,4(s3)
  407a84:	3c060047 	lui	a2,0x47
  407a88:	02e03821 	move	a3,s7
  407a8c:	afa30014 	sw	v1,20(sp)
  407a90:	02a02021 	move	a0,s5
  407a94:	2405007f 	li	a1,127
  407a98:	24c66444 	addiu	a2,a2,25668
  407a9c:	0c1258f0 	jal	4963c0 <snprintf@plt>
  407aa0:	afa20010 	sw	v0,16(sp)
  407aa4:	27a400f0 	addiu	a0,sp,240
  407aa8:	24050302 	li	a1,770
  407aac:	0c1258b0 	jal	4962c0 <open@plt>
  407ab0:	240601a4 	li	a2,420
  407ab4:	14400037 	bnez	v0,407b94 <_init+0x64a8>
  407ab8:	0040b821 	move	s7,v0
  407abc:	02a02021 	move	a0,s5
  407ac0:	24050302 	li	a1,770
  407ac4:	0c1258b0 	jal	4962c0 <open@plt>
  407ac8:	240601a4 	li	a2,420
  407acc:	14400012 	bnez	v0,407b18 <_init+0x642c>
  407ad0:	0040b821 	move	s7,v0
  407ad4:	0c125864 	jal	496190 <unlink@plt>
  407ad8:	27c46418 	addiu	a0,s8,25624
  407adc:	1000ff74 	b	4078b0 <_init+0x61c4>
  407ae0:	00000000 	nop
  407ae4:	0c11ca4c 	jal	472930 <_init+0x71244>
  407ae8:	3c110047 	lui	s1,0x47
  407aec:	24030243 	li	v1,579
  407af0:	afa30014 	sw	v1,20(sp)
  407af4:	3c030048 	lui	v1,0x48
  407af8:	24638858 	addiu	v1,v1,-30632
  407afc:	26315e78 	addiu	s1,s1,24184
  407b00:	afa30018 	sw	v1,24(sp)
  407b04:	3c030047 	lui	v1,0x47
  407b08:	3c100047 	lui	s0,0x47
  407b0c:	afb10010 	sw	s1,16(sp)
  407b10:	1000ffba 	b	4079fc <_init+0x6310>
  407b14:	246361d8 	addiu	v1,v1,25048
  407b18:	8e65001c 	lw	a1,28(s3)
  407b1c:	8e4607f4 	lw	a2,2036(s2)
  407b20:	0c1258d8 	jal	496360 <write@plt>
  407b24:	00402021 	move	a0,v0
  407b28:	02e02021 	move	a0,s7
  407b2c:	0c125970 	jal	4965c0 <close@plt>
  407b30:	0040b821 	move	s7,v0
  407b34:	0c11ca4c 	jal	472930 <_init+0x71244>
  407b38:	00000000 	nop
  407b3c:	3c040047 	lui	a0,0x47
  407b40:	24845e78 	addiu	a0,a0,24184
  407b44:	8e4307f4 	lw	v1,2036(s2)
  407b48:	afa40010 	sw	a0,16(sp)
  407b4c:	240410a3 	li	a0,4259
  407b50:	afa40014 	sw	a0,20(sp)
  407b54:	3c040048 	lui	a0,0x48
  407b58:	248488b0 	addiu	a0,a0,-30544
  407b5c:	afa40018 	sw	a0,24(sp)
  407b60:	3c040047 	lui	a0,0x47
  407b64:	24846460 	addiu	a0,a0,25696
  407b68:	3c070047 	lui	a3,0x47
  407b6c:	afa4001c 	sw	a0,28(sp)
  407b70:	afb70020 	sw	s7,32(sp)
  407b74:	afa30024 	sw	v1,36(sp)
  407b78:	24040006 	li	a0,6
  407b7c:	00402821 	move	a1,v0
  407b80:	24060002 	li	a2,2
  407b84:	0c11cb29 	jal	472ca4 <_init+0x715b8>
  407b88:	24e75e70 	addiu	a3,a3,24176
  407b8c:	1000ffd1 	b	407ad4 <_init+0x63e8>
  407b90:	00000000 	nop
  407b94:	8e4507e4 	lw	a1,2020(s2)
  407b98:	8e4607f4 	lw	a2,2036(s2)
  407b9c:	0c1258d8 	jal	496360 <write@plt>
  407ba0:	00402021 	move	a0,v0
  407ba4:	02e02021 	move	a0,s7
  407ba8:	0c125970 	jal	4965c0 <close@plt>
  407bac:	0040b821 	move	s7,v0
  407bb0:	0c11ca4c 	jal	472930 <_init+0x71244>
  407bb4:	00000000 	nop
  407bb8:	3c040047 	lui	a0,0x47
  407bbc:	24845e78 	addiu	a0,a0,24184
  407bc0:	8e4307f4 	lw	v1,2036(s2)
  407bc4:	afa40010 	sw	a0,16(sp)
  407bc8:	2404109c 	li	a0,4252
  407bcc:	afa40014 	sw	a0,20(sp)
  407bd0:	3c040048 	lui	a0,0x48
  407bd4:	248488b0 	addiu	a0,a0,-30544
  407bd8:	afa40018 	sw	a0,24(sp)
  407bdc:	3c040047 	lui	a0,0x47
  407be0:	24846460 	addiu	a0,a0,25696
  407be4:	3c070047 	lui	a3,0x47
  407be8:	afa4001c 	sw	a0,28(sp)
  407bec:	afb70020 	sw	s7,32(sp)
  407bf0:	afa30024 	sw	v1,36(sp)
  407bf4:	24040006 	li	a0,6
  407bf8:	00402821 	move	a1,v0
  407bfc:	24060002 	li	a2,2
  407c00:	0c11cb29 	jal	472ca4 <_init+0x715b8>
  407c04:	24e75e70 	addiu	a3,a3,24176
  407c08:	1000ffad 	b	407ac0 <_init+0x63d4>
  407c0c:	02a02021 	move	a0,s5
  407c10:	1060fbcb 	beqz	v1,406b40 <_init+0x5454>
  407c14:	00008021 	move	s0,zero
  407c18:	8e64001c 	lw	a0,28(s3)
  407c1c:	0c10f304 	jal	43cc10 <_init+0x3b524>
  407c20:	26100001 	addiu	s0,s0,1
  407c24:	8e420078 	lw	v0,120(s2)
  407c28:	0202102b 	sltu	v0,s0,v0
  407c2c:	1440fffa 	bnez	v0,407c18 <_init+0x652c>
  407c30:	00000000 	nop
  407c34:	1000fe45 	b	40754c <_init+0x5e60>
  407c38:	8e430620 	lw	v1,1568(s2)
  407c3c:	8c890008 	lw	t1,8(a0)
  407c40:	8c820000 	lw	v0,0(a0)
  407c44:	27bdff18 	addiu	sp,sp,-232
  407c48:	00094900 	sll	t1,t1,0x4
  407c4c:	00494821 	addu	t1,v0,t1
  407c50:	25290044 	addiu	t1,t1,68
  407c54:	afbe00e0 	sw	s8,224(sp)
  407c58:	afb500d4 	sw	s5,212(sp)
  407c5c:	afb200c8 	sw	s2,200(sp)
  407c60:	afb000c0 	sw	s0,192(sp)
  407c64:	afbf00e4 	sw	ra,228(sp)
  407c68:	afb700dc 	sw	s7,220(sp)
  407c6c:	afb600d8 	sw	s6,216(sp)
  407c70:	afb400d0 	sw	s4,208(sp)
  407c74:	afb300cc 	sw	s3,204(sp)
  407c78:	afb100c4 	sw	s1,196(sp)
  407c7c:	00809021 	move	s2,a0
  407c80:	00a08021 	move	s0,a1
  407c84:	0000f021 	move	s8,zero
  407c88:	0000a821 	move	s5,zero
  407c8c:	013e1821 	addu	v1,t1,s8
  407c90:	8c770008 	lw	s7,8(v1)
  407c94:	12e00007 	beqz	s7,407cb4 <_init+0x65c8>
  407c98:	00000000 	nop
  407c9c:	92e200b4 	lbu	v0,180(s7)
  407ca0:	10400004 	beqz	v0,407cb4 <_init+0x65c8>
  407ca4:	00000000 	nop
  407ca8:	8ee200ec 	lw	v0,236(s7)
  407cac:	14400013 	bnez	v0,407cfc <_init+0x6610>
  407cb0:	00000000 	nop
  407cb4:	27de0004 	addiu	s8,s8,4
  407cb8:	24030008 	li	v1,8
  407cbc:	17c3fff4 	bne	s8,v1,407c90 <_init+0x65a4>
  407cc0:	013e1821 	addu	v1,t1,s8
  407cc4:	ae500010 	sw	s0,16(s2)
  407cc8:	8fbf00e4 	lw	ra,228(sp)
  407ccc:	02a01021 	move	v0,s5
  407cd0:	8fbe00e0 	lw	s8,224(sp)
  407cd4:	8fb700dc 	lw	s7,220(sp)
  407cd8:	8fb600d8 	lw	s6,216(sp)
  407cdc:	8fb500d4 	lw	s5,212(sp)
  407ce0:	8fb400d0 	lw	s4,208(sp)
  407ce4:	8fb300cc 	lw	s3,204(sp)
  407ce8:	8fb200c8 	lw	s2,200(sp)
  407cec:	8fb100c4 	lw	s1,196(sp)
  407cf0:	8fb000c0 	lw	s0,192(sp)
  407cf4:	03e00008 	jr	ra
  407cf8:	27bd00e8 	addiu	sp,sp,232
  407cfc:	8ee206f0 	lw	v0,1776(s7)
  407d00:	144000d9 	bnez	v0,408068 <_init+0x697c>
  407d04:	00000000 	nop
  407d08:	8ee20008 	lw	v0,8(s7)
  407d0c:	2c430002 	sltiu	v1,v0,2
  407d10:	14600077 	bnez	v1,407ef0 <_init+0x6804>
  407d14:	02009821 	move	s3,s0
  407d18:	14400104 	bnez	v0,40812c <_init+0x6a40>
  407d1c:	2403fff0 	li	v1,-16
  407d20:	8e64000c 	lw	a0,12(s3)
  407d24:	8e650008 	lw	a1,8(s3)
  407d28:	2484000f 	addiu	a0,a0,15
  407d2c:	24a5000f 	addiu	a1,a1,15
  407d30:	00832024 	and	a0,a0,v1
  407d34:	00a31824 	and	v1,a1,v1
  407d38:	70832802 	mul	a1,a0,v1
  407d3c:	8e62001c 	lw	v0,28(s3)
  407d40:	02e02021 	move	a0,s7
  407d44:	26f10678 	addiu	s1,s7,1656
  407d48:	aee206b8 	sw	v0,1720(s7)
  407d4c:	00a21821 	addu	v1,a1,v0
  407d50:	8ee50804 	lw	a1,2052(s7)
  407d54:	aee306bc 	sw	v1,1724(s7)
  407d58:	24a20001 	addiu	v0,a1,1
  407d5c:	aee20804 	sw	v0,2052(s7)
  407d60:	0c101608 	jal	405820 <_init+0x4134>
  407d64:	afa900bc 	sw	t1,188(sp)
  407d68:	0040b021 	move	s6,v0
  407d6c:	1040016d 	beqz	v0,408324 <_init+0x6c38>
  407d70:	8fa900bc 	lw	t1,188(sp)
  407d74:	26f40124 	addiu	s4,s7,292
  407d78:	02802021 	move	a0,s4
  407d7c:	0c125860 	jal	496180 <pthread_mutex_lock@plt>
  407d80:	afa900bc 	sw	t1,188(sp)
  407d84:	02802021 	move	a0,s4
  407d88:	0c1257ec 	jal	495fb0 <pthread_mutex_unlock@plt>
  407d8c:	aee000c8 	sw	zero,200(s7)
  407d90:	8ee40674 	lw	a0,1652(s7)
  407d94:	27a20038 	addiu	v0,sp,56
  407d98:	27a500b4 	addiu	a1,sp,180
  407d9c:	27a600b0 	addiu	a2,sp,176
  407da0:	02203821 	move	a3,s1
  407da4:	0c113b00 	jal	44ec00 <_init+0x4d514>
  407da8:	afa20010 	sw	v0,16(sp)
  407dac:	8fa500b4 	lw	a1,180(sp)
  407db0:	8ee206e8 	lw	v0,1768(s7)
  407db4:	8eed06ec 	lw	t5,1772(s7)
  407db8:	8ca60000 	lw	a2,0(a1)
  407dbc:	8ee7000c 	lw	a3,12(s7)
  407dc0:	24440001 	addiu	a0,v0,1
  407dc4:	0082702b 	sltu	t6,a0,v0
  407dc8:	01cd7021 	addu	t6,t6,t5
  407dcc:	24080001 	li	t0,1
  407dd0:	00e6382b 	sltu	a3,a3,a2
  407dd4:	aec20000 	sw	v0,0(s6)
  407dd8:	aee406e8 	sw	a0,1768(s7)
  407ddc:	aeee06ec 	sw	t6,1772(s7)
  407de0:	8fa900bc 	lw	t1,188(sp)
  407de4:	14e000ea 	bnez	a3,408190 <_init+0x6aa4>
  407de8:	aec80008 	sw	t0,8(s6)
  407dec:	8ca50004 	lw	a1,4(a1)
  407df0:	8ec40004 	lw	a0,4(s6)
  407df4:	afa900bc 	sw	t1,188(sp)
  407df8:	0c125828 	jal	4960a0 <memcpy@plt>
  407dfc:	afa800b8 	sw	t0,184(sp)
  407e00:	8fa200b4 	lw	v0,180(sp)
  407e04:	8e660020 	lw	a2,32(s3)
  407e08:	8e670024 	lw	a3,36(s3)
  407e0c:	8fa800b8 	lw	t0,184(sp)
  407e10:	8c420000 	lw	v0,0(v0)
  407e14:	8ec50004 	lw	a1,4(s6)
  407e18:	26f10104 	addiu	s1,s7,260
  407e1c:	aec60020 	sw	a2,32(s6)
  407e20:	aec70024 	sw	a3,36(s6)
  407e24:	a2c80028 	sb	t0,40(s6)
  407e28:	02202021 	move	a0,s1
  407e2c:	aec50014 	sw	a1,20(s6)
  407e30:	0c125800 	jal	496000 <sem_post@plt>
  407e34:	aec20018 	sw	v0,24(s6)
  407e38:	0c125800 	jal	496000 <sem_post@plt>
  407e3c:	26e40114 	addiu	a0,s7,276
  407e40:	8ec20008 	lw	v0,8(s6)
  407e44:	02202021 	move	a0,s1
  407e48:	27a500ac 	addiu	a1,sp,172
  407e4c:	0c125878 	jal	4961e0 <sem_getvalue@plt>
  407e50:	aee200c4 	sw	v0,196(s7)
  407e54:	8ee20004 	lw	v0,4(s7)
  407e58:	3c04004b 	lui	a0,0x4b
  407e5c:	8c846cd0 	lw	a0,27856(a0)
  407e60:	8c450000 	lw	a1,0(v0)
  407e64:	8ec20018 	lw	v0,24(s6)
  407e68:	8c840000 	lw	a0,0(a0)
  407e6c:	24a30008 	addiu	v1,a1,8
  407e70:	00031880 	sll	v1,v1,0x2
  407e74:	00831821 	addu	v1,a0,v1
  407e78:	8c640008 	lw	a0,8(v1)
  407e7c:	8ee3000c 	lw	v1,12(s7)
  407e80:	27a500a8 	addiu	a1,sp,168
  407e84:	8c910004 	lw	s1,4(a0)
  407e88:	00621023 	subu	v0,v1,v0
  407e8c:	8fa300ac 	lw	v1,172(sp)
  407e90:	262400f0 	addiu	a0,s1,240
  407e94:	aee200bc 	sw	v0,188(s7)
  407e98:	0c125878 	jal	4961e0 <sem_getvalue@plt>
  407e9c:	aee300c0 	sw	v1,192(s7)
  407ea0:	27a500a4 	addiu	a1,sp,164
  407ea4:	0c125878 	jal	4961e0 <sem_getvalue@plt>
  407ea8:	262400e0 	addiu	a0,s1,224
  407eac:	8fa300a8 	lw	v1,168(sp)
  407eb0:	8fa200a4 	lw	v0,164(sp)
  407eb4:	24040010 	li	a0,16
  407eb8:	00831823 	subu	v1,a0,v1
  407ebc:	0062202a 	slt	a0,v1,v0
  407ec0:	0064100a 	movz	v0,v1,a0
  407ec4:	aee200b8 	sw	v0,184(s7)
  407ec8:	0c125860 	jal	496180 <pthread_mutex_lock@plt>
  407ecc:	02802021 	move	a0,s4
  407ed0:	8fa800b8 	lw	t0,184(sp)
  407ed4:	02802021 	move	a0,s4
  407ed8:	0c1257ec 	jal	495fb0 <pthread_mutex_unlock@plt>
  407edc:	aee800c8 	sw	t0,200(s7)
  407ee0:	00001021 	move	v0,zero
  407ee4:	8fa900bc 	lw	t1,188(sp)
  407ee8:	1000ff72 	b	407cb4 <_init+0x65c8>
  407eec:	02a2a821 	addu	s5,s5,v0
  407ef0:	8e140008 	lw	s4,8(s0)
  407ef4:	8ee30014 	lw	v1,20(s7)
  407ef8:	1283007d 	beq	s4,v1,4080f0 <_init+0x6a04>
  407efc:	8ee40018 	lw	a0,24(s7)
  407f00:	8ee50158 	lw	a1,344(s7)
  407f04:	2402fff0 	li	v0,-16
  407f08:	2463000f 	addiu	v1,v1,15
  407f0c:	2484000f 	addiu	a0,a0,15
  407f10:	00629824 	and	s3,v1,v0
  407f14:	10a000ec 	beqz	a1,4082c8 <_init+0x6bdc>
  407f18:	00828824 	and	s1,a0,v0
  407f1c:	8ee50160 	lw	a1,352(s7)
  407f20:	10a000bd 	beqz	a1,408218 <_init+0x6b2c>
  407f24:	02801821 	move	v1,s4
  407f28:	8ee5015c 	lw	a1,348(s7)
  407f2c:	14a00075 	bnez	a1,408104 <_init+0x6a18>
  407f30:	00000000 	nop
  407f34:	8ee50164 	lw	a1,356(s7)
  407f38:	10a00056 	beqz	a1,408094 <_init+0x69a8>
  407f3c:	00000000 	nop
  407f40:	8ef30158 	lw	s3,344(s7)
  407f44:	02001821 	move	v1,s0
  407f48:	260d0030 	addiu	t5,s0,48
  407f4c:	02601021 	move	v0,s3
  407f50:	88670003 	lwl	a3,3(v1)
  407f54:	88660007 	lwl	a2,7(v1)
  407f58:	8865000b 	lwl	a1,11(v1)
  407f5c:	8864000f 	lwl	a0,15(v1)
  407f60:	98670000 	lwr	a3,0(v1)
  407f64:	98660004 	lwr	a2,4(v1)
  407f68:	98650008 	lwr	a1,8(v1)
  407f6c:	9864000c 	lwr	a0,12(v1)
  407f70:	a8470003 	swl	a3,3(v0)
  407f74:	b8470000 	swr	a3,0(v0)
  407f78:	a8460007 	swl	a2,7(v0)
  407f7c:	b8460004 	swr	a2,4(v0)
  407f80:	a845000b 	swl	a1,11(v0)
  407f84:	b8450008 	swr	a1,8(v0)
  407f88:	24630010 	addiu	v1,v1,16
  407f8c:	a844000f 	swl	a0,15(v0)
  407f90:	b844000c 	swr	a0,12(v0)
  407f94:	146dffee 	bne	v1,t5,407f50 <_init+0x6864>
  407f98:	24420010 	addiu	v0,v0,16
  407f9c:	8ee20164 	lw	v0,356(s7)
  407fa0:	00402021 	move	a0,v0
  407fa4:	ae62001c 	sw	v0,28(s3)
  407fa8:	0c113dbe 	jal	44f6f8 <_init+0x4e00c>
  407fac:	afa900bc 	sw	t1,188(sp)
  407fb0:	8ee50014 	lw	a1,20(s7)
  407fb4:	8ee40018 	lw	a0,24(s7)
  407fb8:	2403fff0 	li	v1,-16
  407fbc:	24a7000f 	addiu	a3,a1,15
  407fc0:	2486000f 	addiu	a2,a0,15
  407fc4:	00e33824 	and	a3,a3,v1
  407fc8:	00c33024 	and	a2,a2,v1
  407fcc:	ae650008 	sw	a1,8(s3)
  407fd0:	ae64000c 	sw	a0,12(s3)
  407fd4:	ae620018 	sw	v0,24(s3)
  407fd8:	8e65001c 	lw	a1,28(s3)
  407fdc:	afa70010 	sw	a3,16(sp)
  407fe0:	afa60014 	sw	a2,20(sp)
  407fe4:	92e4001c 	lbu	a0,28(s7)
  407fe8:	8e060008 	lw	a2,8(s0)
  407fec:	2402fffe 	li	v0,-2
  407ff0:	afa40018 	sw	a0,24(sp)
  407ff4:	8eed0024 	lw	t5,36(s7)
  407ff8:	24c6000f 	addiu	a2,a2,15
  407ffc:	00c33024 	and	a2,a2,v1
  408000:	70cd3802 	mul	a3,a2,t5
  408004:	8ee40020 	lw	a0,32(s7)
  408008:	00e46821 	addu	t5,a3,a0
  40800c:	8e07000c 	lw	a3,12(s0)
  408010:	8e04001c 	lw	a0,28(s0)
  408014:	afad001c 	sw	t5,28(sp)
  408018:	24e7000f 	addiu	a3,a3,15
  40801c:	00e33824 	and	a3,a3,v1
  408020:	8ee30028 	lw	v1,40(s7)
  408024:	240d0001 	li	t5,1
  408028:	24630001 	addiu	v1,v1,1
  40802c:	00621824 	and	v1,v1,v0
  408030:	afa30020 	sw	v1,32(sp)
  408034:	8ee3002c 	lw	v1,44(s7)
  408038:	afad0028 	sw	t5,40(sp)
  40803c:	24630001 	addiu	v1,v1,1
  408040:	00621024 	and	v0,v1,v0
  408044:	afa20024 	sw	v0,36(sp)
  408048:	8ee20160 	lw	v0,352(s7)
  40804c:	afa2002c 	sw	v0,44(sp)
  408050:	8ef90168 	lw	t9,360(s7)
  408054:	0320f809 	jalr	t9
  408058:	00000000 	nop
  40805c:	8ee20008 	lw	v0,8(s7)
  408060:	10000003 	b	408070 <_init+0x6984>
  408064:	8fa900bc 	lw	t1,188(sp)
  408068:	8ee20008 	lw	v0,8(s7)
  40806c:	02009821 	move	s3,s0
  408070:	24030001 	li	v1,1
  408074:	1443ff28 	bne	v0,v1,407d18 <_init+0x662c>
  408078:	02e02021 	move	a0,s7
  40807c:	02602821 	move	a1,s3
  408080:	0c1019e2 	jal	406788 <_init+0x509c>
  408084:	afa900bc 	sw	t1,188(sp)
  408088:	02a2a821 	addu	s5,s5,v0
  40808c:	1000ff09 	b	407cb4 <_init+0x65c8>
  408090:	8fa900bc 	lw	t1,188(sp)
  408094:	0c101594 	jal	405650 <_init+0x3f64>
  408098:	afa900bc 	sw	t1,188(sp)
  40809c:	72711802 	mul	v1,s3,s1
  4080a0:	00408821 	move	s1,v0
  4080a4:	24050100 	li	a1,256
  4080a8:	00031040 	sll	v0,v1,0x1
  4080ac:	00432021 	addu	a0,v0,v1
  4080b0:	0c113ce4 	jal	44f390 <_init+0x4dca4>
  4080b4:	00042043 	sra	a0,a0,0x1
  4080b8:	aee20164 	sw	v0,356(s7)
  4080bc:	104000b4 	beqz	v0,408390 <_init+0x6ca4>
  4080c0:	8fa900bc 	lw	t1,188(sp)
  4080c4:	12200015 	beqz	s1,40811c <_init+0x6a30>
  4080c8:	00000000 	nop
  4080cc:	3c020044 	lui	v0,0x44
  4080d0:	24422f74 	addiu	v0,v0,12148
  4080d4:	aee20168 	sw	v0,360(s7)
  4080d8:	7000600c 	d16madl	xr0,xr8,xr1,xr0,AA,WW
  4080dc:	7000184c 	d16madl	xr1,xr6,xr0,xr0,AA,WW
  4080e0:	7000008c 	d16madl	xr2,xr0,xr0,xr0,AA,WW
  4080e4:	700048cc 	d16madl	xr3,xr2,xr1,xr0,AA,WW
  4080e8:	1000ff96 	b	407f44 <_init+0x6858>
  4080ec:	8ef30158 	lw	s3,344(s7)
  4080f0:	8e05000c 	lw	a1,12(s0)
  4080f4:	14a4ff82 	bne	a1,a0,407f00 <_init+0x6814>
  4080f8:	02009821 	move	s3,s0
  4080fc:	1000ffdd 	b	408074 <_init+0x6988>
  408100:	24030001 	li	v1,1
  408104:	8e02001c 	lw	v0,28(s0)
  408108:	aee20164 	sw	v0,356(s7)
  40810c:	0c101594 	jal	405650 <_init+0x3f64>
  408110:	afa900bc 	sw	t1,188(sp)
  408114:	1440ffed 	bnez	v0,4080cc <_init+0x69e0>
  408118:	8fa900bc 	lw	t1,188(sp)
  40811c:	3c020044 	lui	v0,0x44
  408120:	244238c0 	addiu	v0,v0,14528
  408124:	1000ff86 	b	407f40 <_init+0x6854>
  408128:	aee20168 	sw	v0,360(s7)
  40812c:	0c11ca4c 	jal	472930 <_init+0x71244>
  408130:	afa900bc 	sw	t1,188(sp)
  408134:	3c040047 	lui	a0,0x47
  408138:	3c050047 	lui	a1,0x47
  40813c:	3c070048 	lui	a3,0x48
  408140:	248365b0 	addiu	v1,a0,26032
  408144:	24a55e78 	addiu	a1,a1,24184
  408148:	24040407 	li	a0,1031
  40814c:	24e78828 	addiu	a3,a3,-30680
  408150:	afa50010 	sw	a1,16(sp)
  408154:	afa40014 	sw	a0,20(sp)
  408158:	afa70018 	sw	a3,24(sp)
  40815c:	afa3001c 	sw	v1,28(sp)
  408160:	8ee30008 	lw	v1,8(s7)
  408164:	00402821 	move	a1,v0
  408168:	3c020047 	lui	v0,0x47
  40816c:	24475e70 	addiu	a3,v0,24176
  408170:	24040006 	li	a0,6
  408174:	afa30020 	sw	v1,32(sp)
  408178:	0c11cb29 	jal	472ca4 <_init+0x715b8>
  40817c:	24060002 	li	a2,2
  408180:	2402ffff 	li	v0,-1
  408184:	8fa900bc 	lw	t1,188(sp)
  408188:	1000feca 	b	407cb4 <_init+0x65c8>
  40818c:	02a2a821 	addu	s5,s5,v0
  408190:	0c11ca4c 	jal	472930 <_init+0x71244>
  408194:	afa800b8 	sw	t0,184(sp)
  408198:	3c030047 	lui	v1,0x47
  40819c:	24635e78 	addiu	v1,v1,24184
  4081a0:	afa30010 	sw	v1,16(sp)
  4081a4:	240303d2 	li	v1,978
  4081a8:	afa30014 	sw	v1,20(sp)
  4081ac:	3c030047 	lui	v1,0x47
  4081b0:	24636580 	addiu	v1,v1,25984
  4081b4:	afa3001c 	sw	v1,28(sp)
  4081b8:	3c040048 	lui	a0,0x48
  4081bc:	8fa300b4 	lw	v1,180(sp)
  4081c0:	248488d8 	addiu	a0,a0,-30504
  4081c4:	afa40018 	sw	a0,24(sp)
  4081c8:	8c630000 	lw	v1,0(v1)
  4081cc:	00402821 	move	a1,v0
  4081d0:	24060002 	li	a2,2
  4081d4:	afa30020 	sw	v1,32(sp)
  4081d8:	8ee2000c 	lw	v0,12(s7)
  4081dc:	3c030047 	lui	v1,0x47
  4081e0:	24675e70 	addiu	a3,v1,24176
  4081e4:	24040006 	li	a0,6
  4081e8:	0c11cb29 	jal	472ca4 <_init+0x715b8>
  4081ec:	afa20024 	sw	v0,36(sp)
  4081f0:	0c125860 	jal	496180 <pthread_mutex_lock@plt>
  4081f4:	02802021 	move	a0,s4
  4081f8:	8fa800b8 	lw	t0,184(sp)
  4081fc:	02802021 	move	a0,s4
  408200:	0c1257ec 	jal	495fb0 <pthread_mutex_unlock@plt>
  408204:	aee800c8 	sw	t0,200(s7)
  408208:	2402ffff 	li	v0,-1
  40820c:	8fa900bc 	lw	t1,188(sp)
  408210:	1000fea8 	b	407cb4 <_init+0x65c8>
  408214:	02a2a821 	addu	s5,s5,v0
  408218:	8e02000c 	lw	v0,12(s0)
  40821c:	0274202b 	sltu	a0,s3,s4
  408220:	0264180a 	movz	v1,s3,a0
  408224:	0222202b 	sltu	a0,s1,v0
  408228:	0224100a 	movz	v0,s1,a0
  40822c:	00022840 	sll	a1,v0,0x1
  408230:	00032080 	sll	a0,v1,0x2
  408234:	000210c0 	sll	v0,v0,0x3
  408238:	00832021 	addu	a0,a0,v1
  40823c:	00451023 	subu	v0,v0,a1
  408240:	00822021 	addu	a0,a0,v0
  408244:	248407d0 	addiu	a0,a0,2000
  408248:	00042040 	sll	a0,a0,0x1
  40824c:	0c125894 	jal	496250 <malloc@plt>
  408250:	afa900bc 	sw	t1,188(sp)
  408254:	aee20160 	sw	v0,352(s7)
  408258:	1440ff33 	bnez	v0,407f28 <_init+0x683c>
  40825c:	8fa900bc 	lw	t1,188(sp)
  408260:	0c11ca4c 	jal	472930 <_init+0x71244>
  408264:	2415ffff 	li	s5,-1
  408268:	0c1258fc 	jal	4963f0 <__errno_location@plt>
  40826c:	00408021 	move	s0,v0
  408270:	0c1258a0 	jal	496280 <strerror@plt>
  408274:	8c440000 	lw	a0,0(v0)
  408278:	3c030047 	lui	v1,0x47
  40827c:	24635e78 	addiu	v1,v1,24184
  408280:	afa30010 	sw	v1,16(sp)
  408284:	24030447 	li	v1,1095
  408288:	afa30014 	sw	v1,20(sp)
  40828c:	3c030048 	lui	v1,0x48
  408290:	24638808 	addiu	v1,v1,-30712
  408294:	afa30018 	sw	v1,24(sp)
  408298:	3c030047 	lui	v1,0x47
  40829c:	2463650c 	addiu	v1,v1,25868
  4082a0:	3c070047 	lui	a3,0x47
  4082a4:	afa3001c 	sw	v1,28(sp)
  4082a8:	afa20020 	sw	v0,32(sp)
  4082ac:	24040006 	li	a0,6
  4082b0:	02002821 	move	a1,s0
  4082b4:	24060002 	li	a2,2
  4082b8:	0c11cb29 	jal	472ca4 <_init+0x715b8>
  4082bc:	24e75e70 	addiu	a3,a3,24176
  4082c0:	1000fe82 	b	407ccc <_init+0x65e0>
  4082c4:	8fbf00e4 	lw	ra,228(sp)
  4082c8:	24040030 	li	a0,48
  4082cc:	0c125894 	jal	496250 <malloc@plt>
  4082d0:	afa900bc 	sw	t1,188(sp)
  4082d4:	aee20158 	sw	v0,344(s7)
  4082d8:	1440ff10 	bnez	v0,407f1c <_init+0x6830>
  4082dc:	8fa900bc 	lw	t1,188(sp)
  4082e0:	0c11ca4c 	jal	472930 <_init+0x71244>
  4082e4:	2415ffff 	li	s5,-1
  4082e8:	0c1258fc 	jal	4963f0 <__errno_location@plt>
  4082ec:	00408021 	move	s0,v0
  4082f0:	0c1258a0 	jal	496280 <strerror@plt>
  4082f4:	8c440000 	lw	a0,0(v0)
  4082f8:	3c030047 	lui	v1,0x47
  4082fc:	24635e78 	addiu	v1,v1,24184
  408300:	afa30010 	sw	v1,16(sp)
  408304:	2403043f 	li	v1,1087
  408308:	afa30014 	sw	v1,20(sp)
  40830c:	3c030048 	lui	v1,0x48
  408310:	24638808 	addiu	v1,v1,-30712
  408314:	afa30018 	sw	v1,24(sp)
  408318:	3c030047 	lui	v1,0x47
  40831c:	1000ffe0 	b	4082a0 <_init+0x6bb4>
  408320:	246364ec 	addiu	v1,v1,25836
  408324:	8ee20800 	lw	v0,2048(s7)
  408328:	24420001 	addiu	v0,v0,1
  40832c:	0c11ca4c 	jal	472930 <_init+0x71244>
  408330:	aee20800 	sw	v0,2048(s7)
  408334:	240303c2 	li	v1,962
  408338:	afa30014 	sw	v1,20(sp)
  40833c:	3c030048 	lui	v1,0x48
  408340:	246388d8 	addiu	v1,v1,-30504
  408344:	afa30018 	sw	v1,24(sp)
  408348:	3c070047 	lui	a3,0x47
  40834c:	3c030047 	lui	v1,0x47
  408350:	24e75e78 	addiu	a3,a3,24184
  408354:	24636554 	addiu	v1,v1,25940
  408358:	afa70010 	sw	a3,16(sp)
  40835c:	afa3001c 	sw	v1,28(sp)
  408360:	8ee30000 	lw	v1,0(s7)
  408364:	00402821 	move	a1,v0
  408368:	3c020047 	lui	v0,0x47
  40836c:	24475e70 	addiu	a3,v0,24176
  408370:	24040002 	li	a0,2
  408374:	afa30020 	sw	v1,32(sp)
  408378:	0c11cb29 	jal	472ca4 <_init+0x715b8>
  40837c:	24060002 	li	a2,2
  408380:	2402ffff 	li	v0,-1
  408384:	8fa900bc 	lw	t1,188(sp)
  408388:	1000fe4a 	b	407cb4 <_init+0x65c8>
  40838c:	02a2a821 	addu	s5,s5,v0
  408390:	0c11ca4c 	jal	472930 <_init+0x71244>
  408394:	2415ffff 	li	s5,-1
  408398:	3c030047 	lui	v1,0x47
  40839c:	24635e78 	addiu	v1,v1,24184
  4083a0:	afa30010 	sw	v1,16(sp)
  4083a4:	24030459 	li	v1,1113
  4083a8:	afa30014 	sw	v1,20(sp)
  4083ac:	3c030048 	lui	v1,0x48
  4083b0:	24638808 	addiu	v1,v1,-30712
  4083b4:	afa30018 	sw	v1,24(sp)
  4083b8:	3c030047 	lui	v1,0x47
  4083bc:	24636530 	addiu	v1,v1,25904
  4083c0:	3c070047 	lui	a3,0x47
  4083c4:	afa3001c 	sw	v1,28(sp)
  4083c8:	24040006 	li	a0,6
  4083cc:	00402821 	move	a1,v0
  4083d0:	24060002 	li	a2,2
  4083d4:	0c11cb29 	jal	472ca4 <_init+0x715b8>
  4083d8:	24e75e70 	addiu	a3,a3,24176
  4083dc:	1000fe3b 	b	407ccc <_init+0x65e0>
  4083e0:	8fbf00e4 	lw	ra,228(sp)
  4083e4:	27bdffb8 	addiu	sp,sp,-72
  4083e8:	afbf0044 	sw	ra,68(sp)
  4083ec:	afb40040 	sw	s4,64(sp)
  4083f0:	afb3003c 	sw	s3,60(sp)
  4083f4:	afb20038 	sw	s2,56(sp)
  4083f8:	afb10034 	sw	s1,52(sp)
  4083fc:	0c101430 	jal	4050c0 <_init+0x39d4>
  408400:	afb00030 	sw	s0,48(sp)
  408404:	04400008 	bltz	v0,408428 <_init+0x6d3c>
  408408:	00000000 	nop
  40840c:	0c101430 	jal	4050c0 <_init+0x39d4>
  408410:	00000000 	nop
  408414:	28420003 	slti	v0,v0,3
  408418:	10400003 	beqz	v0,408428 <_init+0x6d3c>
  40841c:	3c030012 	lui	v1,0x12
  408420:	10000008 	b	408444 <_init+0x6d58>
  408424:	3463c000 	ori	v1,v1,0xc000
  408428:	0c101430 	jal	4050c0 <_init+0x39d4>
  40842c:	00000000 	nop
  408430:	28420003 	slti	v0,v0,3
  408434:	1040006b 	beqz	v0,4085e4 <_init+0x6ef8>
  408438:	00000000 	nop
  40843c:	3c03001f 	lui	v1,0x1f
  408440:	3463a400 	ori	v1,v1,0xa400
  408444:	3c02004c 	lui	v0,0x4c
  408448:	8c509d38 	lw	s0,-25288(v0)
  40844c:	3c140047 	lui	s4,0x47
  408450:	3c130048 	lui	s3,0x48
  408454:	0c11ca4c 	jal	472930 <_init+0x71244>
  408458:	0070800a 	movz	s0,v1,s0
  40845c:	00402821 	move	a1,v0
  408460:	24020119 	li	v0,281
  408464:	afa20014 	sw	v0,20(sp)
  408468:	3c020047 	lui	v0,0x47
  40846c:	244265d8 	addiu	v0,v0,26072
  408470:	3c120047 	lui	s2,0x47
  408474:	26945e78 	addiu	s4,s4,24184
  408478:	267387cc 	addiu	s3,s3,-30772
  40847c:	3c11004c 	lui	s1,0x4c
  408480:	26475e70 	addiu	a3,s2,24176
  408484:	24040004 	li	a0,4
  408488:	24060002 	li	a2,2
  40848c:	afa2001c 	sw	v0,28(sp)
  408490:	2631a5a0 	addiu	s1,s1,-23136
  408494:	afb40010 	sw	s4,16(sp)
  408498:	afb30018 	sw	s3,24(sp)
  40849c:	0c11cb29 	jal	472ca4 <_init+0x715b8>
  4084a0:	afb00020 	sw	s0,32(sp)
  4084a4:	02202021 	move	a0,s1
  4084a8:	00002821 	move	a1,zero
  4084ac:	0c1258ec 	jal	4963b0 <memset@plt>
  4084b0:	24060074 	li	a2,116
  4084b4:	02202021 	move	a0,s1
  4084b8:	0c10f94e 	jal	43e538 <_init+0x3ce4c>
  4084bc:	02002821 	move	a1,s0
  4084c0:	0440004c 	bltz	v0,4085f4 <_init+0x6f08>
  4084c4:	00002821 	move	a1,zero
  4084c8:	3c10004c 	lui	s0,0x4c
  4084cc:	00003021 	move	a2,zero
  4084d0:	0c1258e8 	jal	4963a0 <sem_init@plt>
  4084d4:	2604a614 	addiu	a0,s0,-23020
  4084d8:	0c125800 	jal	496000 <sem_post@plt>
  4084dc:	2604a614 	addiu	a0,s0,-23020
  4084e0:	26445e70 	addiu	a0,s2,24176
  4084e4:	0c10f11c 	jal	43c470 <_init+0x3ad84>
  4084e8:	24050064 	li	a1,100
  4084ec:	10400054 	beqz	v0,408640 <_init+0x6f54>
  4084f0:	24430040 	addiu	v1,v0,64
  4084f4:	24040006 	li	a0,6
  4084f8:	3c10004b 	lui	s0,0x4b
  4084fc:	26106cd8 	addiu	s0,s0,27864
  408500:	ac440024 	sw	a0,36(v0)
  408504:	24040001 	li	a0,1
  408508:	ac440020 	sw	a0,32(v0)
  40850c:	ac420040 	sw	v0,64(v0)
  408510:	02002021 	move	a0,s0
  408514:	3c02004b 	lui	v0,0x4b
  408518:	00002821 	move	a1,zero
  40851c:	24063060 	li	a2,12384
  408520:	0c1258ec 	jal	4963b0 <memset@plt>
  408524:	ac436cd0 	sw	v1,27856(v0)
  408528:	02002021 	move	a0,s0
  40852c:	26033060 	addiu	v1,s0,12384
  408530:	2402ffff 	li	v0,-1
  408534:	ac820000 	sw	v0,0(a0)
  408538:	ac80013c 	sw	zero,316(a0)
  40853c:	24840810 	addiu	a0,a0,2064
  408540:	1483fffc 	bne	a0,v1,408534 <_init+0x6e48>
  408544:	00000000 	nop
  408548:	0c1018cc 	jal	406330 <_init+0x4c44>
  40854c:	00000000 	nop
  408550:	3c060047 	lui	a2,0x47
  408554:	3c070041 	lui	a3,0x41
  408558:	24040002 	li	a0,2
  40855c:	00002821 	move	a1,zero
  408560:	24c66624 	addiu	a2,a2,26148
  408564:	0c10d3f6 	jal	434fd8 <_init+0x338ec>
  408568:	24e711b8 	addiu	a3,a3,4536
  40856c:	3c060047 	lui	a2,0x47
  408570:	3c070041 	lui	a3,0x41
  408574:	24040002 	li	a0,2
  408578:	24050001 	li	a1,1
  40857c:	24c66630 	addiu	a2,a2,26160
  408580:	0c10d3f6 	jal	434fd8 <_init+0x338ec>
  408584:	24e7e414 	addiu	a3,a3,-7148
  408588:	3c060047 	lui	a2,0x47
  40858c:	3c070041 	lui	a3,0x41
  408590:	24040002 	li	a0,2
  408594:	24050002 	li	a1,2
  408598:	24c6663c 	addiu	a2,a2,26172
  40859c:	0c10d3f6 	jal	434fd8 <_init+0x338ec>
  4085a0:	24e71778 	addiu	a3,a3,6008
  4085a4:	3c060047 	lui	a2,0x47
  4085a8:	3c070041 	lui	a3,0x41
  4085ac:	24040002 	li	a0,2
  4085b0:	24050003 	li	a1,3
  4085b4:	24c6664c 	addiu	a2,a2,26188
  4085b8:	0c10d3f6 	jal	434fd8 <_init+0x338ec>
  4085bc:	24e7f634 	addiu	a3,a3,-2508
